 ARDOP2

 Timestamp is 614888a4 (Mon Sep 20 14:12:04 2021)

 Preferred load address is 00400000

 Start         Length     Name                   Class
 0001:00000000 0002f43fH .text                   CODE
 0002:00000000 00000218H .idata$5                DATA
 0002:00000218 00000004H .CRT$XCA                DATA
 0002:0000021c 00000004H .CRT$XCZ                DATA
 0002:00000220 00000004H .CRT$XIA                DATA
 0002:00000224 00000014H .CRT$XIC                DATA
 0002:00000238 00000004H .CRT$XIZ                DATA
 0002:0000023c 00000004H .CRT$XPA                DATA
 0002:00000240 00000004H .CRT$XPX                DATA
 0002:00000244 00000004H .CRT$XPXA               DATA
 0002:00000248 00000004H .CRT$XPZ                DATA
 0002:0000024c 00000004H .CRT$XTA                DATA
 0002:00000250 00000004H .CRT$XTZ                DATA
 0002:00000260 00010ac8H .rdata                  DATA
 0002:00010d28 00000035H .rdata$debug            DATA
 0002:00010d60 0000000cH .rdata$sxdata           DATA
 0002:00010d6c 00000004H .rtc$IAA                DATA
 0002:00010d70 00000004H .rtc$IZZ                DATA
 0002:00010d74 00000004H .rtc$TAA                DATA
 0002:00010d78 00000004H .rtc$TZZ                DATA
 0002:00010d80 000004b4H .xdata$x                DATA
 0002:00011234 00000050H .idata$2                DATA
 0002:00011284 00000014H .idata$3                DATA
 0002:00011298 00000218H .idata$4                DATA
 0002:000114b0 0000085aH .idata$6                DATA
 0002:00011d0a 00000000H .edata                  DATA
 0003:00000000 000024d0H .data                   DATA
 0003:000024e0 00043a30H .bss                    DATA

  Address         Publics by Value              Rva+Base       Lib:Object

 0000:00000000       __except_list              00000000     <absolute>
 0000:00000003       ___safe_se_handler_count   00000003     <absolute>
 0000:00000000       ___ImageBase               00400000     <linker-defined>
 0001:00000000       _strlop                    00401000 f   ARDOPC.obj
 0001:00000020       _CheckValidCallsignSyntax  00401020 f   ARDOPC.obj
 0001:000000c0       _CheckGSSyntax             004010c0 f   ARDOPC.obj
 0001:00000190       _ardopmain                 00401190 f   ARDOPC.obj
 0001:00000330       _FrameInfo                 00401330 f   ARDOPC.obj
 0001:00000860       _RSEncode                  00401860 f   ARDOPC.obj
 0001:00000910       _RSDecode                  00401910 f   ARDOPC.obj
 0001:00000aa0       _EncodePSKData             00401aa0 f   ARDOPC.obj
 0001:00000c70       _EncodeFSKData             00401c70 f   ARDOPC.obj
 0001:00000f10       _EncodeARQConRequest       00401f10 f   ARDOPC.obj
 0001:00000fc0       _EncodePing                00401fc0 f   ARDOPC.obj
 0001:00001020       _EncodeCQ                  00402020 f   ARDOPC.obj
 0001:000010a0       _Encode4FSKIDFrame         004020a0 f   ARDOPC.obj
 0001:00001110       _EncodeAndSend4FSKControl  00402110 f   ARDOPC.obj
 0001:00001140       _EncodePingAck             00402140 f   ARDOPC.obj
 0001:000011b0       _SendID                    004021b0 f   ARDOPC.obj
 0001:00001290       _Send5SecTwoTone           00402290 f   ARDOPC.obj
 0001:00001300       _ASCIIto6Bit               00402300 f   ARDOPC.obj
 0001:00001410       _Bit6ToASCII               00402410 f   ARDOPC.obj
 0001:00001510       _CompressCallsign          00402510 f   ARDOPC.obj
 0001:00001600       _CompressGridSquare        00402600 f   ARDOPC.obj
 0001:00001690       _DeCompressCallsign        00402690 f   ARDOPC.obj
 0001:00001790       _DeCompressGridSquare      00402790 f   ARDOPC.obj
 0001:00001800       _FrameCode                 00402800 f   ARDOPC.obj
 0001:00001850       _GenCRC16                  00402850 f   ARDOPC.obj
 0001:000019b0       _CheckCRC16FrameType       004029b0 f   ARDOPC.obj
 0001:000019f0       _ClearDataToSend           004029f0 f   ARDOPC.obj
 0001:00001a20       _RemoveDataFromQueue       00402a20 f   ARDOPC.obj
 0001:00001ae0       _CheckTimers               00402ae0 f   ARDOPC.obj
 0001:00001e80       _UpdateBusyDetector        00402e80 f   ARDOPC.obj
 0001:00002460       _SendCQ                    00403460 f   ARDOPC.obj
 0001:000024f0       _SendPING                  004034f0 f   ARDOPC.obj
 0001:00002590       _ProcessPingFrame          00403590 f   ARDOPC.obj
 0001:00002680       _ProcessCQFrame            00403680 f   ARDOPC.obj
 0001:000026c0       _GetNAKLoQLevels           004036c0 f   ARQ.obj
 0001:00002740       _GetACKHiQLevels           00403740 f   ARQ.obj
 0001:000027e0       _GenCRC8                   004037e0 f   ARQ.obj
 0001:00002890       _ComputeInterFrameInterval 00403890 f   ARQ.obj
 0001:000028b0       _SetARDOPProtocolState     004038b0 f   ARQ.obj
 0001:000029f0       _GetNextARQFrame           004039f0 f   ARQ.obj
 0001:00002e00       _GenerateSessionID         00403e00 f   ARQ.obj
 0001:00002e60       _IsCallToMe                00403e60 f   ARQ.obj
 0001:00002f00       _IsPingToMe                00403f00 f   ARQ.obj
 0001:00002fa0       _GetDataModes              00403fa0 f   ARQ.obj
 0001:00003030       _Gearshift_2               00404030 f   ARQ.obj
 0001:00003390       _GetNumCarriers            00404390 f   ARQ.obj
 0001:000033f0       _SendData                  004043f0 f   ARQ.obj
 0001:00003660       _GetNextFrameData          00404660 f   ARQ.obj
 0001:00003920       _InitializeConnection      00404920 f   ARQ.obj
 0001:00003a80       _ProcessUnconnectedConReqFrame 00404a80 f   ARQ.obj
 0001:00003b30       _ProcessRcvdARQFrame       00404b30 f   ARQ.obj
 0001:00005020       _IRSNegotiateBW            00406020 f   ARQ.obj
 0001:000050a0       _SendARQConnectRequest     004060a0 f   ARQ.obj
 0001:00005260       _Send10MinID               00406260 f   ARQ.obj
 0001:000052d0       _CheckForDisconnect        004062d0 f   ARQ.obj
 0001:00005390       _Break                     00406390 f   ARQ.obj
 0001:000053e0       _Abort                     004063e0 f   ARQ.obj
 0001:00005410       _ClearTuningStats          00406410 f   ARQ.obj
 0001:00005510       _LogStats                  00406510 f   ARQ.obj
 0001:00005900       _Modified_Berlekamp_Massey 00406900 f   berlekamp.obj
 0001:00005b20       _mult_polys                00406b20 f   berlekamp.obj
 0001:00005c80       _Find_Roots                00406c80 f   berlekamp.obj
 0001:00005d70       _correct_errors_erasures   00406d70 f   berlekamp.obj
 0001:00005fd0       _ClearBusy                 00406fd0 f   BusyDetect.obj
 0001:00006020       _BusyDetect3               00407020 f   BusyDetect.obj
 0001:00006280       _compare                   00407280 f   BusyDetect.obj
 0001:000062c0       _SortSignals2              004072c0 f   BusyDetect.obj
 0001:00006410       _StartFEC                  00407410 f   FEC.obj
 0001:00006540       _GetNextFECFrame           00407540 f   FEC.obj
 0001:00006a90       _ProcessRcvdFECDataFrame   00407a90 f   FEC.obj
 0001:00006ca0       _NumberOfBitsNeeded        00407ca0 f   FFT.obj
 0001:00006ce0       _FourierTransform          00407ce0 f   FFT.obj
 0001:00007390       _getopt_missing_arg        00408390 f   getopt.obj
 0001:000073b0       _getopt_argerror           004083b0 f   getopt.obj
 0001:00007420       _getopt_match              00408420 f   getopt.obj
 0001:00007460       _getopt_resolved           00408460 f   getopt.obj
 0001:00007aa0       _AddDataToDataToSend       00408aa0 f   HostInterface.obj
 0001:00007b30       _DoTrueFalseCmd            00408b30 f   HostInterface.obj
 0001:00007c40       _ProcessCommandFromHost    00408c40 f   HostInterface.obj
 0001:000094b0       _SendCommandToHost         0040a4b0 f   HostInterface.obj
 0001:000094b0       _QueueCommandToHost        0040a4b0 f   HostInterface.obj
 0001:000094d0       _SendReplyToHost           0040a4d0 f   HostInterface.obj
 0001:000094f0       _AddTagToDataAndSendToHost 0040a4f0 f   HostInterface.obj
 0001:00009570       _KISSInit                  0040a570 f   KISSModule.obj
 0001:000095d0       _ProcessPacketBytes        0040a5d0 f   KISSModule.obj
 0001:00009650       _ProcessKISSBytes          0040a650 f   KISSModule.obj
 0001:000096c0       _ProcessKISSByte           0040a6c0 f   KISSModule.obj
 0001:00009700       _GetNextKISSFrame          0040a700 f   KISSModule.obj
 0001:00009860       _CheckKISS                 0040a860 f   KISSModule.obj
 0001:000098e0       _SendAckModeAck            0040a8e0 f   KISSModule.obj
 0001:00009970       _GetTwoToneLeaderWithSync  0040a970 f   Modulate.obj
 0001:000099e0       _SendLeaderAndSYNC         0040a9e0 f   Modulate.obj
 0001:00009b60       _Mod4FSKDataAndPlay        0040ab60 f   Modulate.obj
 0001:00009f50       _ModPSKDataAndPlay         0040af50 f   Modulate.obj
 0001:0000a650       _AddTrailer                0040b650 f   Modulate.obj
 0001:0000a6b0       _RemodulateLastFrame       0040b6b0 f   Modulate.obj
 0001:0000a7a0       _initFilter                0040b7a0 f   Modulate.obj
 0001:0000aa50       _SampleSink                0040ba50 f   Modulate.obj
 0001:0000adf0       _sendCWID                  0040bdf0 f   Modulate.obj
 0001:0000b230       _PktARDOPEncode            0040c230 f   pktARDOP.obj
 0001:0000b300       _PktARDOPStartTX           0040c300 f   pktARDOP.obj
 0001:0000b3e0       _ConvToAX25                0040c3e0 f   pktSession.obj
 0001:0000b440       _ConvFromAX25              0040c440 f   pktSession.obj
 0001:0000b4d0       _ConvertCallstoAX25        0040c4d0 f   pktSession.obj
 0001:0000b510       _CompareCalls              0040c510 f   pktSession.obj
 0001:0000b5b0       _NewLink                   0040c5b0 f   pktSession.obj
 0001:0000b6f0       _FindLink                  0040c6f0 f   pktSession.obj
 0001:0000b740       _FindFreeHostChannel       0040c740 f   pktSession.obj
 0001:0000b7a0       _L2Routine                 0040c7a0 f   pktSession.obj
 0001:0000b990       _L2FORUS                   0040c990 f   pktSession.obj
 0001:0000ba90       _ProcessXIDCommand         0040ca90 f   pktSession.obj
 0001:0000bcb0       _L2LINKACTIVE              0040ccb0 f   pktSession.obj
 0001:0000bdd0       _L2SABM                    0040cdd0 f   pktSession.obj
 0001:0000be10       _SETUPNEWL2SESSION         0040ce10 f   pktSession.obj
 0001:0000bfa0       _L2SENDRESP                0040cfa0 f   pktSession.obj
 0001:0000c010       _L2SWAPADDRESSES           0040d010 f   pktSession.obj
 0001:0000c0f0       _L2_PROCESS                0040d0f0 f   pktSession.obj
 0001:0000c2a0       _SDUFRM                    0040d2a0 f   pktSession.obj
 0001:0000c3a0       _SFRAME                    0040d3a0 f   pktSession.obj
 0001:0000c690       _SDIFRM                    0040d690 f   pktSession.obj
 0001:0000c930       _PROC_I_FRAME              0040d930 f   pktSession.obj
 0001:0000c9b0       _RESET2X                   0040d9b0 f   pktSession.obj
 0001:0000c9e0       _CLEARL2QUEUES             0040d9e0 f   pktSession.obj
 0001:0000ca20       _RESET2                    0040da20 f   pktSession.obj
 0001:0000ca50       _SENDSABM                  0040da50 f   pktSession.obj
 0001:0000cab0       _PutKISS                   0040dab0 f   pktSession.obj
 0001:0000cb50       _PUT_ON_PORT_Q             0040db50 f   pktSession.obj
 0001:0000cd30       _SETUPADDRESSES            0040dd30 f   pktSession.obj
 0001:0000cd60       _SDETX                     0040dd60 f   pktSession.obj
 0001:0000cf30       _L2TimerProc               0040df30 f   pktSession.obj
 0001:0000d0a0       _SendSupervisCmd           0040e0a0 f   pktSession.obj
 0001:0000d0f0       _ACKMSG                    0040e0f0 f   pktSession.obj
 0001:0000d1a0       _L2TIMEOUT                 0040e1a0 f   pktSession.obj
 0001:0000d2c0       _SDFRMR                    0040e2c0 f   pktSession.obj
 0001:0000d2f0       _SENDFRMR                  0040e2f0 f   pktSession.obj
 0001:0000d360       _CLEAROUTLINK              0040e360 f   pktSession.obj
 0001:0000d430       _L2SENDXID                 0040e430 f   pktSession.obj
 0001:0000d510       _L2SENDCOMMAND             0040e510 f   pktSession.obj
 0001:0000d570       _L2SENDRESPONSE            0040e570 f   pktSession.obj
 0001:0000d610       _RR_OR_RNR                 0040e610 f   pktSession.obj
 0001:0000d720       _ptkSessionBG              0040e720 f   pktSession.obj
 0001:0000d780       _PktSend                   0040e780 f   pktSession.obj
 0001:0000d7b0       _ProcessPktCommand         0040e7b0 f   pktSession.obj
 0001:0000db90       _PacketSessionPoll         0040eb90 f   pktSession.obj
 0001:0000dbd0       _CheckForPktMon            0040ebd0 f   pktSession.obj
 0001:0000dd10       _CheckForPktData           0040ed10 f   pktSession.obj
 0001:0000e000       _ProcessPktData            0040f000 f   pktSession.obj
 0001:0000e130       _ProcessDEDModeFrame       0040f130 f   pktSession.obj
 0001:0000e760       _DisplaySessionStats       0040f760 f   pktSession.obj
 0001:0000e890       _decode_data               0040f890 f   rs.obj
 0001:0000ea50       _encode_data               0040fa50 f   rs.obj
 0001:0000eb50       _SCSSendCommandToHost      0040fb50 f   SCSHostInterface.obj
 0001:0000eec0       _SCSSendReplyToHost        0040fec0 f   SCSHostInterface.obj
 0001:0000ef10       _SCSSendCommandToHostQuiet 0040ff10 f   SCSHostInterface.obj
 0001:0000efd0       _SCSAddTagToDataAndSendToHost 0040ffd0 f   SCSHostInterface.obj
 0001:0000f090       _CheckStatusChange         00410090 f   SCSHostInterface.obj
 0001:0000f100       _CheckForControl           00410100 f   SCSHostInterface.obj
 0001:0000f190       _CheckForData              00410190 f   SCSHostInterface.obj
 0001:0000f290       _CheckForLog               00410290 f   SCSHostInterface.obj
 0001:0000f340       _EmUnstuff                 00410340 f   SCSHostInterface.obj
 0001:0000f380       _ProcessSCSHostFrame       00410380 f   SCSHostInterface.obj
 0001:0000fbc0       _ProcessSCSTextCommand     00410bc0 f   SCSHostInterface.obj
 0001:00010260       _ProcessSCSPacket          00411260 f   SCSHostInterface.obj
 0001:00010620       _EmCRCStuffAndSend         00411620 f   SCSHostInterface.obj
 0001:00010700       _ProcessRIGPacket          00411700 f   SCSHostInterface.obj
 0001:00010830       _IsShortControlFrame       00411830 f   SoundInput.obj
 0001:000108a0       _IsDataFrame               004118a0 f   SoundInput.obj
 0001:000108f0       _FSMixFilter2500Hz         004118f0 f   SoundInput.obj
 0001:00010b60       _Filter75Hz                00411b60 f   SoundInput.obj
 0001:00010d60       _MixNCOFilter              00411d60 f   SoundInput.obj
 0001:00010e70       _CorrectRawDataWithRS      00411e70 f   SoundInput.obj
 0001:00011000       _ProcessNewSamples         00412000 f   SoundInput.obj
 0001:00011d40       _GoertzelRealImagHann120   00412d40 f   SoundInput.obj
 0001:00012120       _GoertzelRealImagHann960   00413120 f   SoundInput.obj
 0001:000126c0       _GoertzelRealImagHanning   004136c0 f   SoundInput.obj
 0001:00012960       _SpectralPeakLocator       00413960 f   SoundInput.obj
 0001:00012b10       _SearchFor2ToneLeader4     00413b10 f   SoundInput.obj
 0001:00013110       _Acquire2ToneLeaderSymbolFraming 00414110 f   SoundInput.obj
 0001:00013240       _EnvelopeCorrelatorNew     00414240 f   SoundInput.obj
 0001:00013520       _AcquireFrameSyncRSBAvg    00414520 f   SoundInput.obj
 0001:00013830       _DemodFrameType4FSK        00414830 f   SoundInput.obj
 0001:00013a50       _ComputeDecodeDistance     00414a50 f   SoundInput.obj
 0001:00013b60       _CheckTypeParity           00414b60 f   SoundInput.obj
 0001:00013ba0       _GetFrameTypeByte          00414ba0 f   SoundInput.obj
 0001:00013d50       _MinimalDistanceFrameType  00414d50 f   SoundInput.obj
 0001:00014600       _Acquire4FSKFrameType      00415600 f   SoundInput.obj
 0001:00014700       _Demod1Car4FSK             00415700 f   SoundInput.obj
 0001:000148b0       _Demod1Car4FSKChar         004158b0 f   SoundInput.obj
 0001:00014be0       _Decode4FSKConReq          00415be0 f   SoundInput.obj
 0001:00014d50       _Compute4FSKSN             00415d50 f   SoundInput.obj
 0001:00014e50       _Decode4FSKPing            00415e50 f   SoundInput.obj
 0001:00015090       _Decode4FSKPingACK         00416090 f   SoundInput.obj
 0001:00015130       _Decode4FSKID              00416130 f   SoundInput.obj
 0001:000152a0       _Decode4FSKCQ_de           004162a0 f   SoundInput.obj
 0001:000153f0       _DemodulateFrame           004163f0 f   SoundInput.obj
 0001:00015520       _DecodeFrame               00416520 f   SoundInput.obj
 0001:00015d70       _Update4FSKConstellation   00416d70 f   SoundInput.obj
 0001:000160e0       _Update16FSKConstellation  004170e0 f   SoundInput.obj
 0001:000163a0       _Update8FSKConstellation   004173a0 f   SoundInput.obj
 0001:00016600       _UpdatePhaseConstellation  00417600 f   SoundInput.obj
 0001:00016cc0       _Decode1CarPSK             00417cc0 f   SoundInput.obj
 0001:00016f20       _Track1CarPSK              00417f20 f   SoundInput.obj
 0001:00016fc0       _Decode1CarQAM             00417fc0 f   SoundInput.obj
 0001:00017120       _InitDemodPSK              00418120 f   SoundInput.obj
 0001:00017310       _CheckCarrierPairPSK       00418310 f   SoundInput.obj
 0001:000174a0       _DemodPSK                  004184a0 f   SoundInput.obj
 0001:00017b40       _Demod1CarPSKChar          00418b40 f   SoundInput.obj
 0001:00017cd0       _InitDemodQAM              00418cd0 f   SoundInput.obj
 0001:00017e60       _WeightedAngleAvg          00418e60 f   SoundInput.obj
 0001:00017f10       _SaveQAMSamples            00418f10 f   SoundInput.obj
 0001:00018000       _SavePSKSamples            00419000 f   SoundInput.obj
 0001:000180a0       _CheckCarrierPair          004190a0 f   SoundInput.obj
 0001:00018290       _DemodQAM                  00419290 f   SoundInput.obj
 0001:00018a00       _Demod1CarQAMChar          00419a00 f   SoundInput.obj
 0001:00018b50       _Format_Addr               00419b50 f   TCPHostInterface.obj
 0001:00018b90       _TCPSendCommandToHost      00419b90 f   TCPHostInterface.obj
 0001:00018c30       _TCPSendCommandToHostQuiet 00419c30 f   TCPHostInterface.obj
 0001:00018cb0       _TCPAddTagToDataAndSendToHost 00419cb0 f   TCPHostInterface.obj
 0001:00018d40       _ProcessReceivedControl    00419d40 f   TCPHostInterface.obj
 0001:00018ef0       _ProcessReceivedData       00419ef0 f   TCPHostInterface.obj
 0001:00019030       _OpenSocket4               0041a030 f   TCPHostInterface.obj
 0001:00019160       _OpenUDPSocket             0041a160 f   TCPHostInterface.obj
 0001:00019260       _TCPHostInit               0041a260 f   TCPHostInterface.obj
 0001:00019310       _TCPHostPoll               0041a310 f   TCPHostInterface.obj
 0001:00019b90       _SendtoGUI                 0041ab90 f   TCPHostInterface.obj
 0001:00019c30       _BPQOpenSerialPort         0041ac30 f   WinSerial.obj
 0001:00019ce0       _SerialSendData            0041ace0 f   WinSerial.obj
 0001:00019d50       _BPQSerialGetData          0041ad50 f   WinSerial.obj
 0001:00019e20       _PutString                 0041ae20 f   WinSerial.obj
 0001:00019e40       _PutChar                   0041ae40 f   WinSerial.obj
 0001:00019e60       _SerialHostInit            0041ae60 f   WinSerial.obj
 0001:00019f30       _SerialHostPoll            0041af30 f   WinSerial.obj
 0001:00019f90       _Debugprintf               0041af90 f   Waveout1.obj
 0001:00019ff0       _CtrlHandler               0041aff0 f   Waveout1.obj
 0001:0001a110       _main                      0041b110 f   Waveout1.obj
 0001:0001a4b0       _printtick                 0041b4b0 f   Waveout1.obj
 0001:0001a4f0       _txSleep                   0041b4f0 f   Waveout1.obj
 0001:0001a550       _SendtoCard                0041b550 f   Waveout1.obj
 0001:0001a610       _GetSoundDevices           0041b610 f   Waveout1.obj
 0001:0001a860       _InitSound                 0041b860 f   Waveout1.obj
 0001:0001aa50       _PollReceivedSamples       0041ba50 f   Waveout1.obj
 0001:0001acb0       _WriteDebugLog             0041bcb0 f   Waveout1.obj
 0001:0001ae40       _Statsprintf               0041be40 f   Waveout1.obj
 0001:0001afb0       _SoundFlush                0041bfb0 f   Waveout1.obj
 0001:0001b260       _RadioPTT                  0041c260 f   Waveout1.obj
 0001:0001b2f0       _KeyPTT                    0041c2f0 f   Waveout1.obj
 0001:0001b3a0       _displayState              0041c3a0 f   Waveout1.obj
 0001:0001b400       _DrawTXFrame               0041c400 f   Waveout1.obj
 0001:0001b400       _DrawTXMode                0041c400 f   Waveout1.obj
 0001:0001b460       _DrawRXFrame               0041c460 f   Waveout1.obj
 0001:0001b4c0       _SetLED                    0041c4c0 f   Waveout1.obj
 0001:0001b540       _displayCall               0041c540 f   Waveout1.obj
 0001:0001b5a0       _OpenCOMPort               0041c5a0 f   Waveout1.obj
 0001:0001b7b0       _ReadCOMBlock              0041c7b0 f   Waveout1.obj
 0001:0001b820       _WriteCOMBlock             0041c820 f   Waveout1.obj
 0001:0001b870       _CatWrite                  0041c870 f   Waveout1.obj
 0001:0001b8c0       _DrawAxes                  0041c8c0 f   Waveout1.obj
 0001:0001bad0       _hid_enumerate             0041cad0 f   hid.obj
 0001:0001be60       _hid_free_enumeration      0041ce60 f   hid.obj
 0001:0001bea0       _hid_open_path             0041cea0 f   hid.obj
 0001:0001c020       _hid_write                 0041d020 f   hid.obj
 0001:0001c0a0       _compute_crc               0041d0a0 f   ARDOPCommon.obj
 0001:0001c0e0       _processargs               0041d0e0 f   ARDOPCommon.obj
 0001:0001c4c0       _LostHost                  0041d4c0 f   ARDOPCommon.obj
 0001:0001c510       _CM108_set_ptt             0041d510 f   ARDOPCommon.obj
 0001:0001c5f0       _DecodeCM108               0041d5f0 f   ARDOPCommon.obj
 0001:0001c7ee       @__security_check_cookie@4 0041d7ee f   LIBCMT:secchk.obj
 0001:0001c7fd       _sprintf                   0041d7fd f   LIBCMT:sprintf.obj
 0001:0001c878       __time32                   0041d878 f   LIBCMT:time.obj
 0001:0001c8c0       _memmove                   0041d8c0 f   LIBCMT:memmove.obj
 0001:0001cc40       _strchr                    0041dc40 f   LIBCMT:strchr.obj
 0001:0001cc46       ___from_strstr_to_strchr   0041dc46     LIBCMT:strchr.obj
 0001:0001ccfe       _atol                      0041dcfe f   LIBCMT:atox.obj
 0001:0001cd0f       _atoi                      0041dd0f f   LIBCMT:atox.obj
 0001:0001cd14       ??0_LocaleUpdate@@QAE@PAUlocaleinfo_struct@@@Z 0041dd14 f i LIBCMT:_ctype.obj
 0001:0001cd96       __isalpha_l                0041dd96 f i LIBCMT:_ctype.obj
 0001:0001cdea       _isalpha                   0041ddea f i LIBCMT:_ctype.obj
 0001:0001ce15       __isdigit_l                0041de15 f i LIBCMT:_ctype.obj
 0001:0001ce64       _isdigit                   0041de64 f i LIBCMT:_ctype.obj
 0001:0001ce8d       __isalnum_l                0041de8d f i LIBCMT:_ctype.obj
 0001:0001cee1       _isalnum                   0041dee1 f i LIBCMT:_ctype.obj
 0001:0001cf0c       _rand                      0041df0c f   LIBCMT:rand.obj
 0001:0001cf2e       ___iob_func                0041df2e f   LIBCMT:_file.obj
 0001:0001cf34       ___initstdio               0041df34 f   LIBCMT:_file.obj
 0001:0001cfe5       ___endstdio                0041dfe5 f   LIBCMT:_file.obj
 0001:0001d005       __lock_file                0041e005 f   LIBCMT:_file.obj
 0001:0001d034       __lock_file2               0041e034 f   LIBCMT:_file.obj
 0001:0001d057       __unlock_file              0041e057 f   LIBCMT:_file.obj
 0001:0001d086       __unlock_file2             0041e086 f   LIBCMT:_file.obj
 0001:0001d0a9       _fprintf                   0041e0a9 f   LIBCMT:fprintf.obj
 0001:0001d2c0       _qsort                     0041e2c0 f   LIBCMT:qsort.obj
 0001:0001d567       _strtok_s                  0041e567 f   LIBCMT:strtok_s.obj
 0001:0001d653       __freea                    0041e653 f i LIBCMT:strupr.obj
 0001:0001d7ea       __strupr_s_l               0041e7ea f   LIBCMT:strupr.obj
 0001:0001d81d       __strupr                   0041e81d f   LIBCMT:strupr.obj
 0001:0001d880       _strstr                    0041e880 f   LIBCMT:strstr.obj
 0001:0001d906       _free                      0041e906 f   LIBCMT:free.obj
 0001:0001d994       _V6_HeapAlloc              0041e994 f   LIBCMT:malloc.obj
 0001:0001d9e3       _malloc                    0041e9e3 f   LIBCMT:malloc.obj
 0001:0001daa6       _realloc                   0041eaa6 f   LIBCMT:realloc.obj
 0001:0001dcd0       _memchr                    0041ecd0 f   LIBCMT:memchr.obj
 0001:0001dd7d       __memicmp_l                0041ed7d f   LIBCMT:memicmp.obj
 0001:0001de50       __memicmp                  0041ee50 f   LIBCMT:memicmp.obj
 0001:0001deb0       _ceil                      0041eeb0 f   LIBCMT:ceil_pentium4.obj
 0001:0001def0       __ceil_pentium4            0041eef0 f   LIBCMT:ceil_pentium4.obj
 0001:0001dfcd       __tolower_l                0041efcd f   LIBCMT:tolower.obj
 0001:0001e0e4       _tolower                   0041f0e4 f   LIBCMT:tolower.obj
 0001:0001e10b       __get_sys_err_msg          0041f10b f i LIBCMT:perror.obj
 0001:0001e12e       _perror                    0041f12e f   LIBCMT:perror.obj
 0001:0001e1bc       _printf                    0041f1bc f   LIBCMT:printf.obj
 0001:0001e26b       __get_printf_count_output  0041f26b f   LIBCMT:printf.obj
 0001:0001e281       __vsprintf_l               0041f281 f   LIBCMT:vsprintf.obj
 0001:0001e2fd       _vsprintf                  0041f2fd f   LIBCMT:vsprintf.obj
 0001:0001e314       _fputs                     0041f314 f   LIBCMT:fputs.obj
 0001:0001e456       __fsopen                   0041f456 f   LIBCMT:fopen.obj
 0001:0001e51a       _fopen                     0041f51a f   LIBCMT:fopen.obj
 0001:0001e52d       __fwrite_nolock            0041f52d f   LIBCMT:fwrite.obj
 0001:0001e647       __fclose_nolock            0041f647 f   LIBCMT:fclose.obj
 0001:0001e6ba       _fclose                    0041f6ba f   LIBCMT:fclose.obj
 0001:0001e736       __calloc_impl              0041f736 f   LIBCMT:calloc.obj
 0001:0001e854       _calloc                    0041f854 f   LIBCMT:calloc.obj
 0001:0001eabe       _strtol                    0041fabe f   LIBCMT:strtol.obj
 0001:0001eaf0       _strncpy                   0041faf0 f   LIBCMT:strncpy.obj
 0001:0001ec14       __wcsdup                   0041fc14 f   LIBCMT:wcsdup.obj
 0001:0001ec67       _abort                     0041fc67 f   LIBCMT:abort.obj
 0001:0001ed5a       __get_errno_from_oserr     0041fd5a f   LIBCMT:dosmap.obj
 0001:0001ed95       __errno                    0041fd95 f   LIBCMT:dosmap.obj
 0001:0001eda8       ___doserrno                0041fda8 f   LIBCMT:dosmap.obj
 0001:0001edbb       __dosmaperr                0041fdbb f   LIBCMT:dosmap.obj
 0001:0001edd9       __strdup                   0041fdd9 f   LIBCMT:strdup.obj
 0001:0001ee29       __wcstombs_l_helper        0041fe29 f   LIBCMT:wcstombs.obj
 0001:0001f06f       _wcstombs                  0042006f f   LIBCMT:wcstombs.obj
 0001:0001f086       __amsg_exit                00420086 f   LIBCMT:crt0dat.obj
 0001:0001f0aa       ___crtCorExitProcess       004200aa f   LIBCMT:crt0dat.obj
 0001:0001f0d0       ___crtExitProcess          004200d0 f   LIBCMT:crt0dat.obj
 0001:0001f0e5       __lockexit                 004200e5 f   LIBCMT:crt0dat.obj
 0001:0001f0ee       __unlockexit               004200ee f   LIBCMT:crt0dat.obj
 0001:0001f10f       __initterm_e               0042010f f   LIBCMT:crt0dat.obj
 0001:0001f12f       __get_osplatform           0042012f f   LIBCMT:crt0dat.obj
 0001:0001f166       __get_winmajor             00420166 f   LIBCMT:crt0dat.obj
 0001:0001f1a2       __cinit                    004201a2 f   LIBCMT:crt0dat.obj
 0001:0001f302       _exit                      00420302 f   LIBCMT:crt0dat.obj
 0001:0001f313       __exit                     00420313 f   LIBCMT:crt0dat.obj
 0001:0001f324       __cexit                    00420324 f   LIBCMT:crt0dat.obj
 0001:0001f333       __c_exit                   00420333 f   LIBCMT:crt0dat.obj
 0001:0001f342       __init_pointers            00420342 f   LIBCMT:crt0dat.obj
 0001:0001f5a9       _mainCRTStartup            004205a9 f   LIBCMT:crt0.obj
 0001:0001f5b3       ___report_gsfailure        004205b3 f   LIBCMT:gs_report.obj
 0001:0001f6b7       __flsbuf                   004206b7 f   LIBCMT:_flsbuf.obj
 0001:0001f8b8       __output_l                 004208b8 f   LIBCMT:output.obj
 0001:00020250       __initp_misc_invarg        00421250 f   LIBCMT:invarg.obj
 0001:0002025a       __invoke_watson            0042125a f   LIBCMT:invarg.obj
 0001:00020356       __invalid_parameter        00421356 f   LIBCMT:invarg.obj
 0001:00020380       __aulldiv                  00421380 f   LIBCMT:ulldiv.obj
 0001:000203f0       _memset                    004213f0 f   LIBCMT:memset.obj
 0001:0002046a       __malloc_crt               0042146a f   LIBCMT:crtheap.obj
 0001:000204aa       __calloc_crt               004214aa f   LIBCMT:crtheap.obj
 0001:000204f2       __realloc_crt              004214f2 f   LIBCMT:crtheap.obj
 0001:0002053d       __encode_pointer           0042153d f   LIBCMT:tidtable.obj
 0001:000205a0       __encoded_null             004215a0 f   LIBCMT:tidtable.obj
 0001:000205a9       __decode_pointer           004215a9 f   LIBCMT:tidtable.obj
 0001:0002060c       ___crtTlsAlloc@4           0042160c f   LIBCMT:tidtable.obj
 0001:00020615       ___set_flsgetvalue         00421615 f   LIBCMT:tidtable.obj
 0001:0002063f       __mtterm                   0042163f f   LIBCMT:tidtable.obj
 0001:0002067c       __initptd                  0042167c f   LIBCMT:tidtable.obj
 0001:00020730       __getptd_noexit            00421730 f   LIBCMT:tidtable.obj
 0001:000207b3       __getptd                   004217b3 f   LIBCMT:tidtable.obj
 0001:000207cb       __freefls@4                004217cb f   LIBCMT:tidtable.obj
 0001:000208ec       __mtinit                   004218ec f   LIBCMT:tidtable.obj
 0001:00020af7       __VEC_memcpy               00421af7 f   LIBCMT:p4_memcpy.obj
 0001:00020bda       __sse2_mathfcns_init       00421bda f   LIBCMT:mathfcns.obj
 0001:00020dfc       ___updatetmbcinfo          00421dfc f   LIBCMT:mbctype.obj
 0001:00020f1a       __setmbcp_nolock           00421f1a f   LIBCMT:mbctype.obj
 0001:000210c5       __setmbcp                  004220c5 f   LIBCMT:mbctype.obj
 0001:0002125f       ___initmbctable            0042225f f   LIBCMT:mbctype.obj
 0001:0002127d       ___freetlocinfo            0042227d f   LIBCMT:setlocal.obj
 0001:000213bd       ___addlocaleref            004223bd f   LIBCMT:setlocal.obj
 0001:00021443       ___removelocaleref         00422443 f   LIBCMT:setlocal.obj
 0001:0002150d       ___updatetlocinfo          0042250d f   LIBCMT:setlocal.obj
 0001:00021583       __isctype_l                00422583 f   LIBCMT:isctype.obj
 0001:00021639       __ioinit                   00422639 f   LIBCMT:ioinit.obj
 0001:00021879       __fcloseall                00422879 f   LIBCMT:closeall.obj
 0001:00021918       __flush                    00422918 f   LIBCMT:fflush.obj
 0001:0002197a       __fflush_nolock            0042297a f   LIBCMT:fflush.obj
 0001:00021a96       __flushall                 00422a96 f   LIBCMT:fflush.obj
 0001:00021a9f       __mtinitlocks              00422a9f f   LIBCMT:mlock.obj
 0001:00021ae8       __mtdeletelocks            00422ae8 f   LIBCMT:mlock.obj
 0001:00021b3d       __unlock                   00422b3d f   LIBCMT:mlock.obj
 0001:00021b52       __mtinitlocknum            00422b52 f   LIBCMT:mlock.obj
 0001:00021c15       __lock                     00422c15 f   LIBCMT:mlock.obj
 0001:00021c46       __stbuf                    00422c46 f   LIBCMT:_sftbuf.obj
 0001:00021cdc       __ftbuf                    00422cdc f   LIBCMT:_sftbuf.obj
 0001:00021d0b       __fileno                   00422d0b f   LIBCMT:fileno.obj
 0001:00021d38       __SEH_prolog4              00422d38 f   LIBCMT:sehprolg4.obj
 0001:00021d7d       __SEH_epilog4              00422d7d f   LIBCMT:sehprolg4.obj
 0001:00021da0       __except_handler4          00422da0 f   LIBCMT:chandler4.obj
 0001:00021f36       _strcpy_s                  00422f36 f   LIBCMT:strcpy_s.obj
 0001:0002233d       ___crtLCMapStringA         0042333d f   LIBCMT:a_map.obj
 0001:00022380       _strnlen                   00423380 f   LIBCMT:strlen_s.obj
 0001:000223a0       __alloca_probe_16          004233a0 f   LIBCMT:alloca16.obj
 0001:000223b6       __alloca_probe_8           004233b6     LIBCMT:alloca16.obj
 0001:000223cc       ___heap_select             004233cc f   LIBCMT:heapinit.obj
 0001:00022427       __heap_init                00423427 f   LIBCMT:heapinit.obj
 0001:00022481       ___sbh_heap_init           00423481 f   LIBCMT:sbheap.obj
 0001:000224c9       ___sbh_find_block          004234c9 f   LIBCMT:sbheap.obj
 0001:000224f4       ___sbh_free_block          004234f4 f   LIBCMT:sbheap.obj
 0001:00022808       ___sbh_alloc_new_region    00423808 f   LIBCMT:sbheap.obj
 0001:000228b8       ___sbh_alloc_new_group     004238b8 f   LIBCMT:sbheap.obj
 0001:000229be       ___sbh_resize_block        004239be f   LIBCMT:sbheap.obj
 0001:00022c9d       ___sbh_alloc_block         00423c9d f   LIBCMT:sbheap.obj
 0001:00022f80       __NMSG_WRITE               00423f80 f   LIBCMT:crt0msg.obj
 0001:00023120       __FF_MSGBANNER             00424120 f   LIBCMT:crt0msg.obj
 0001:00023159       __initp_heap_handler       00424159 f   LIBCMT:handler.obj
 0001:00023163       __callnewh                 00424163 f   LIBCMT:handler.obj
 0001:00023190       _memcpy                    00424190 f   LIBCMT:memcpy.obj
 0001:00023500       ___ascii_memicmp           00424500 f   LIBCMT:_memicmp.obj
 0001:00023559       ___libm_error_support      00424559 f   LIBCMT:libm_error.obj
 0001:00023809       __ceil_default             00424809 f   LIBCMT:ceil.obj
 0001:000238da       __isleadbyte_l             004248da f i LIBCMT:_wctype.obj
 0001:00023910       _isleadbyte                00424910 f i LIBCMT:_wctype.obj
 0001:0002391e       ___sys_nerr                0042491e f   LIBCMT:syserr.obj
 0001:00023924       ___sys_errlist             00424924 f   LIBCMT:syserr.obj
 0001:0002392a       __set_osfhnd               0042492a f   LIBCMT:osfinfo.obj
 0001:000239a7       __free_osfhnd              004249a7 f   LIBCMT:osfinfo.obj
 0001:00023a28       __get_osfhandle            00424a28 f   LIBCMT:osfinfo.obj
 0001:00023a99       ___lock_fhandle            00424a99 f   LIBCMT:osfinfo.obj
 0001:00023b39       __unlock_fhandle           00424b39 f   LIBCMT:osfinfo.obj
 0001:00023b5b       __alloc_osfhnd             00424b5b f   LIBCMT:osfinfo.obj
 0001:00023cfa       __write_nolock             00424cfa f   LIBCMT:write.obj
 0001:000242c0       __write                    004252c0 f   LIBCMT:write.obj
 0001:000243a0       _strlen                    004253a0 f   LIBCMT:strlen.obj
 0001:0002442b       __vsnprintf_l              0042542b f   LIBCMT:vsnprint.obj
 0001:000244dc       _vsnprintf                 004254dc f   LIBCMT:vsnprint.obj
 0001:000244dc       __vsnprintf                004254dc f   LIBCMT:vsnprint.obj
 0001:000244f7       __openfile                 004254f7 f   LIBCMT:_open.obj
 0001:00024799       __getstream                00425799 f   LIBCMT:stream.obj
 0001:000248c0       __local_unwind4            004258c0 f   LIBCMT:exsup4.obj
 0001:00024996       __seh_longjmp_unwind4@4    00425996 f   LIBCMT:exsup4.obj
 0001:000249b2       @_EH4_CallFilterFunc@8     004259b2 f   LIBCMT:exsup4.obj
 0001:000249c9       @_EH4_TransferToHandler@8  004259c9 f   LIBCMT:exsup4.obj
 0001:000249e2       @_EH4_GlobalUnwind@4       004259e2 f   LIBCMT:exsup4.obj
 0001:000249fc       @_EH4_LocalUnwind@16       004259fc f   LIBCMT:exsup4.obj
 0001:00024a13       __close_nolock             00425a13 f   LIBCMT:close.obj
 0001:00024aa7       __close                    00425aa7 f   LIBCMT:close.obj
 0001:00024b74       __freebuf                  00425b74 f   LIBCMT:_freebuf.obj
 0001:00024ba0       _wcscpy_s                  00425ba0 f   LIBCMT:wcscpy_s.obj
 0001:00024c0c       _wcslen                    00425c0c f   LIBCMT:wcslen.obj
 0001:00024c22       __initp_misc_winsig        00425c22 f   LIBCMT:winsig.obj
 0001:00024c6f       ___get_sigabrt             00425c6f f   LIBCMT:winsig.obj
 0001:00024c7c       _raise                     00425c7c f   LIBCMT:winsig.obj
 0001:00024ed9       ___onexitinit              00425ed9 f   LIBCMT:onexit.obj
 0001:00024f08       __onexit                   00425f08 f   LIBCMT:onexit.obj
 0001:00024f44       _atexit                    00425f44 f   LIBCMT:onexit.obj
 0001:00024f56       __RTC_Initialize           00425f56 f   LIBCMT:initsect.obj
 0001:00024f7a       __RTC_Terminate            00425f7a f   LIBCMT:initsect.obj
 0001:00024f9e       __initp_misc_cfltcvt_tab   00425f9e f   LIBCMT:cmiscdat.obj
 0001:00024fc0       __ValidateImageBase        00425fc0 f   LIBCMT:pesect.obj
 0001:00024ff0       __FindPESection            00425ff0 f   LIBCMT:pesect.obj
 0001:00025032       __IsNonwritableInCurrentImage 00426032 f   LIBCMT:pesect.obj
 0001:0002509e       ?terminate@@YAXXZ          0042609e f   LIBCMT:hooks.obj
 0001:000250d7       __initp_eh_hooks           004260d7 f   LIBCMT:hooks.obj
 0001:000250e8       __fpclear                  004260e8 f   LIBCMT:fpinit.obj
 0001:000250e8       __initp_misc_winxfltr      004260e8 f   LIBCMT:winxfltr.obj
 0001:000250e9       __XcptFilter               004260e9 f   LIBCMT:winxfltr.obj
 0001:00025258       __initp_misc_rand_s        00426258 f   LIBCMT:rand_s.obj
 0001:00025262       __initp_misc_purevirt      00426262 f   LIBCMT:inithelp.obj
 0001:0002526c       __initp_misc_initcrit      0042626c f   LIBCMT:initcrit.obj
 0001:00025286       ___crtInitCritSecAndSpinCount 00426286 f   LIBCMT:initcrit.obj
 0001:0002534b       __setenvp                  0042634b f   LIBCMT:stdenvp.obj
 0001:000255be       __setargv                  004265be f   LIBCMT:stdargv.obj
 0001:00025677       ___crtGetEnvironmentStringsA 00426677 f   LIBCMT:a_env.obj
 0001:000257ac       ___security_init_cookie    004267ac f   LIBCMT:gs_support.obj
 0001:00025840       __crt_debugger_hook        00426840 f   LIBCMT:dbghook.obj
 0001:00025848       __lseeki64_nolock          00426848 f   LIBCMT:lseeki64.obj
 0001:000258cb       __lseeki64                 004268cb f   LIBCMT:lseeki64.obj
 0001:000259e4       __getbuf                   004269e4 f   LIBCMT:_getbuf.obj
 0001:00025a28       __isatty                   00426a28 f   LIBCMT:isatty.obj
 0001:00025a86       __wctomb_s_l               00426a86 f   LIBCMT:wctomb.obj
 0001:00025be5       _wctomb_s                  00426be5 f   LIBCMT:wctomb.obj
 0001:00025c00       __aulldvrm                 00426c00 f   LIBCMT:ulldvrm.obj
 0001:00025cec       __VEC_memzero              00426cec f   LIBCMT:p4_memset.obj
 0001:00025dcb       __get_sse2_info            00426dcb f   LIBCMT:cpu_disp.obj
 0001:00025e2b       ___sse2_available_init     00426e2b f   LIBCMT:cpu_disp.obj
 0001:00025e40       __allmul                   00426e40 f   LIBCMT:llmul.obj
 0001:0002602c       ___crtGetStringTypeA       0042702c f   LIBCMT:a_str.obj
 0001:0002606c       ___free_lc_time            0042706c f   LIBCMT:inittime.obj
 0001:000261fc       ___free_lconv_num          004271fc f   LIBCMT:initnum.obj
 0001:0002623c       ___free_lconv_mon          0042723c f   LIBCMT:initmon.obj
 0001:000262c5       _strcat_s                  004272c5 f   LIBCMT:strcat_s.obj
 0001:00026340       _strcspn                   00427340 f   LIBCMT:strcspn.obj
 0001:00026386       _strncpy_s                 00427386 f   LIBCMT:strncpy_s.obj
 0001:00026440       _strcmp                    00427440 f   LIBCMT:strcmp.obj
 0001:000264c8       _strncmp                   004274c8 f   LIBCMT:strncmp.obj
 0001:00026590       _strpbrk                   00427590 f   LIBCMT:strpbrk.obj
 0001:000265d0       __commit                   004275d0 f   LIBCMT:commit.obj
 0001:000266b1       ___ansicp                  004276b1 f   LIBCMT:convrtcp.obj
 0001:000266f8       ___convertcp               004276f8 f   LIBCMT:convrtcp.obj
 0001:000268b0       __chkstk                   004278b0 f   LIBCMT:chkstk.obj
 0001:000268b0       __alloca_probe             004278b0     LIBCMT:chkstk.obj
 0001:000268db       ___crtMessageBoxA          004278db f   LIBCMT:crtmbox.obj
 0001:00026a79       __set_error_mode           00427a79 f   LIBCMT:errmode.obj
 0001:00026abf       __matherr                  00427abf f   LIBCMT:matherr.obj
 0001:00026ac2       __cfltcvt_init             00427ac2 f   LIBCMT:fpinit.obj
 0001:00026b22       __fpmath                   00427b22 f   LIBCMT:fpinit.obj
 0001:00026b40       __raise_exc_ex             00427b40 f   LIBCMT:fpexcept.obj
 0001:00026e1a       __raise_exc                00427e1a f   LIBCMT:fpexcept.obj
 0001:00026e3b       __handle_exc               00427e3b f   LIBCMT:fpexcept.obj
 0001:0002701c       __set_errno_from_matherr   0042801c f   LIBCMT:fpexcept.obj
 0001:00027044       __errcode                  00428044 f   LIBCMT:fpexcept.obj
 0001:00027071       __umatherr                 00428071 f   LIBCMT:fpexcept.obj
 0001:0002710f       __handle_qnan1             0042810f f   LIBCMT:fpexcept.obj
 0001:00027162       __except1                  00428162 f   LIBCMT:fpexcept.obj
 0001:0002721c       __frnd                     0042821c f   LIBCMT:frnd.obj
 0001:0002722d       __set_exp                  0042822d f   LIBCMT:util.obj
 0001:00027257       __sptype                   00428257 f   LIBCMT:util.obj
 0001:000272b2       __decomp                   004282b2 f   LIBCMT:util.obj
 0001:00027361       __statfp                   00428361 f   LIBCMT:fpctrl.obj
 0001:0002736c       __clrfp                    0042836c f   LIBCMT:fpctrl.obj
 0001:00027378       __ctrlfp                   00428378 f   LIBCMT:fpctrl.obj
 0001:0002739f       __set_statfp               0042839f f   LIBCMT:fpctrl.obj
 0001:000273f5       ___set_fpsr_sse2           004283f5 f   LIBCMT:fpctrl.obj
 0001:00027467       __putwch_nolock            00428467 f   LIBCMT:putwch.obj
 0001:00027529       __mbtowc_l                 00428529 f   LIBCMT:mbtowc.obj
 0001:0002763c       _mbtowc                    0042863c f   LIBCMT:mbtowc.obj
 0001:00027c91       __sopen_helper             00428c91 f   LIBCMT:open.obj
 0001:00027d5d       __sopen_s                  00428d5d f   LIBCMT:open.obj
 0001:00027d7b       __mbsicmp_l                00428d7b f   LIBCMT:mbsicmp.obj
 0001:00027f95       __mbsicmp                  00428f95 f   LIBCMT:mbsicmp.obj
 0001:00027fa8       __mbsnbcmp_l               00428fa8 f   LIBCMT:mbsnbcmp.obj
 0001:00028111       __mbsnbcmp                 00429111 f   LIBCMT:mbsnbcmp.obj
 0001:00028128       __global_unwind2           00429128 f   LIBCMT:exsup.obj
 0001:0002818d       __local_unwind2            0042918d f   LIBCMT:exsup.obj
 0001:00028211       __abnormal_termination     00429211 f   LIBCMT:exsup.obj
 0001:00028234       __NLG_Notify1              00429234 f   LIBCMT:exsup.obj
 0001:0002823d       __NLG_Notify               0042923d f   LIBCMT:exsup.obj
 0001:00028254       __NLG_Dispatch             00429254     LIBCMT:exsup.obj
 0001:00028254       __NLG_Dispatch2            00429254     LIBCMT:exsup.obj
 0001:0002825c       __NLG_Call                 0042925c f   LIBCMT:exsup.obj
 0001:0002825e       __NLG_Return2              0042925e     LIBCMT:exsup.obj
 0001:0002825f       __msize                    0042925f f   LIBCMT:msize.obj
 0001:00028302       __fptrap                   00429302 f   LIBCMT:crt0fp.obj
 0001:0002835c       __ismbblead                0042935c f   LIBCMT:ismbbyte.obj
 0001:0002836f       ___ascii_stricmp           0042936f f   LIBCMT:stricmp.obj
 0001:000283a4       __stricmp_l                004293a4 f   LIBCMT:stricmp.obj
 0001:00028477       __forcdecpt_l              00429477 f   LIBCMT:cvt.obj
 0001:000284e8       __cropzeros_l              004294e8 f   LIBCMT:cvt.obj
 0001:00028568       __positive                 00429568 f   LIBCMT:cvt.obj
 0001:0002857e       __fassign_l                0042957e f   LIBCMT:cvt.obj
 0001:000285be       __fassign                  004295be f   LIBCMT:cvt.obj
 0001:000285f2       __forcdecpt                004295f2 f   LIBCMT:cvt.obj
 0001:00028600       __cropzeros                00429600 f   LIBCMT:cvt.obj
 0001:0002877b       __cftoe_l                  0042977b f   LIBCMT:cvt.obj
 0001:00028849       __cftoe                    00429849 f   LIBCMT:cvt.obj
 0001:00028867       __cftoa_l                  00429867 f   LIBCMT:cvt.obj
 0001:00028ccd       __cftof_l                  00429ccd f   LIBCMT:cvt.obj
 0001:00028d86       __cftog_l                  00429d86 f   LIBCMT:cvt.obj
 0001:00028e7e       __cfltcvt_l                00429e7e f   LIBCMT:cvt.obj
 0001:00028f04       __cfltcvt                  00429f04 f   LIBCMT:cvt.obj
 0001:00028f25       __setdefaultprecision      00429f25 f   LIBCMT:fp8.obj
 0001:00028f4e       __ms_p5_test_fdiv          00429f4e f   LIBCMT:testfdiv.obj
 0001:00028f8a       __ms_p5_mp_test_fdiv       00429f8a f   LIBCMT:testfdiv.obj
 0001:00028fb3       ___initconout              00429fb3 f   LIBCMT:initcon.obj
 0001:00028fd2       ___termcon                 00429fd2 f   LIBCMT:initcon.obj
 0001:00028fff       __chsize_nolock            00429fff f   LIBCMT:chsize.obj
 0001:000291b3       __read_nolock              0042a1b3 f   LIBCMT:read.obj
 0001:00029755       __lseek_nolock             0042a755 f   LIBCMT:lseek.obj
 0001:000297c7       __setmode_nolock           0042a7c7 f   LIBCMT:setmode.obj
 0001:00029883       __get_fmode                0042a883 f   LIBCMT:setmode.obj
 0001:000298c0       ___ascii_strnicmp          0042a8c0 f   LIBCMT:_strnicm.obj
 0001:00029930       _strrchr                   0042a930 f   LIBCMT:strrchr.obj
 0001:0002995d       __atodbl_l                 0042a95d f   LIBCMT:atodbl.obj
 0001:00029a03       __atoflt_l                 0042aa03 f   LIBCMT:atodbl.obj
 0001:00029aa9       __fptostr                  0042aaa9 f   LIBCMT:_fptostr.obj
 0001:00029b66       ___dtold                   0042ab66 f   LIBCMT:cfout.obj
 0001:00029c21       __fltout2                  0042ac21 f   LIBCMT:cfout.obj
 0001:00029cb0       __alldvrm                  0042acb0 f   LIBCMT:lldvrm.obj
 0001:00029d90       __aullshr                  0042ad90 f   LIBCMT:ullshr.obj
 0001:00029daf       __controlfp_s              0042adaf f   LIBCMT:contrlfp.obj
 0001:00029e19       __ld12tod                  0042ae19 f   LIBCMT:intrncvt.obj
 0001:0002a35b       __ld12tof                  0042b35b f   LIBCMT:intrncvt.obj
 0001:0002a89d       ___strgtold12_l            0042b89d f   LIBCMT:strgtold.obj
 0001:0002af61       _$I10_OUTPUT               0042bf61 f   LIBCMT:x10fout.obj
 0001:0002b957       __control87                0042c957 f i LIBCMT:ieee87.obj
 0001:0002bc5a       ___mtold12                 0042cc5a f   LIBCMT:mantold.obj
 0001:0002be26       _closesocket@4             0042ce26 f   WS2_32:WS2_32.dll
 0001:0002be2c       _send@16                   0042ce2c f   WS2_32:WS2_32.dll
 0001:0002be32       _accept@12                 0042ce32 f   WS2_32:WS2_32.dll
 0001:0002be38       _listen@8                  0042ce38 f   WS2_32:WS2_32.dll
 0001:0002be3e       ___WSAFDIsSet@8            0042ce3e f   WS2_32:WS2_32.dll
 0001:0002be44       _socket@12                 0042ce44 f   WS2_32:WS2_32.dll
 0001:0002be4a       _bind@12                   0042ce4a f   WS2_32:WS2_32.dll
 0001:0002be50       _recv@16                   0042ce50 f   WS2_32:WS2_32.dll
 0001:0002be56       _sendto@24                 0042ce56 f   WS2_32:WS2_32.dll
 0001:0002be5c       _setsockopt@20             0042ce5c f   WS2_32:WS2_32.dll
 0001:0002be62       _htons@4                   0042ce62 f   WS2_32:WS2_32.dll
 0001:0002be68       _WSAGetLastError@0         0042ce68 f   WS2_32:WS2_32.dll
 0001:0002be6e       _select@20                 0042ce6e f   WS2_32:WS2_32.dll
 0001:0002be74       _recvfrom@24               0042ce74 f   WS2_32:WS2_32.dll
 0001:0002be7a       _WSAStartup@8              0042ce7a f   WS2_32:WS2_32.dll
 0001:0002be80       _ioctlsocket@12            0042ce80 f   WS2_32:WS2_32.dll
 0001:0002be86       _RtlUnwind@16              0042ce86 f   kernel32:KERNEL32.dll
 0001:0002be90       __ftol2_sse                0042ce90 f   LIBCMT:ftol2.obj
 0001:0002be99       __ftol2_pentium4           0042ce99 f   LIBCMT:ftol2.obj
 0001:0002beac       __ftol2_sse_excpt          0042ceac f   LIBCMT:ftol2.obj
 0001:0002bec6       __ftol2                    0042cec6 f   LIBCMT:ftol2.obj
 0001:0002bf40       _atan2                     0042cf40 f   LIBCMT:87ctriga.obj
 0001:0002bf4a       __CIatan2                  0042cf4a f   LIBCMT:87ctriga.obj
 0001:0002bf60       _cos                       0042cf60 f   LIBCMT:cos.obj
 0001:0002bfa0       __CIcos                    0042cfa0 f   LIBCMT:cos.obj
 0001:0002bfdb       __CIcos_default            0042cfdb f   LIBCMT:cos.obj
 0001:0002bfef       __cos_default              0042cfef     LIBCMT:cos.obj
 0001:0002c090       _sin                       0042d090 f   LIBCMT:sin.obj
 0001:0002c0d0       __CIsin                    0042d0d0 f   LIBCMT:sin.obj
 0001:0002c10b       __CIsin_default            0042d10b f   LIBCMT:sin.obj
 0001:0002c11f       __sin_default              0042d11f     LIBCMT:sin.obj
 0001:0002c1c0       _log10                     0042d1c0 f   LIBCMT:log10.obj
 0001:0002c200       __CIlog10                  0042d200 f   LIBCMT:log10.obj
 0001:0002c23b       __CIlog10_default          0042d23b f   LIBCMT:log10.obj
 0001:0002c24f       __log10_default            0042d24f     LIBCMT:log10.obj
 0001:0002c310       __CIsqrt                   0042d310 f   LIBCMT:sqrt.obj
 0001:0002c324       _sqrt                      0042d324     LIBCMT:sqrt.obj
 0001:0002c3d0       _pow                       0042d3d0 f   LIBCMT:pow.obj
 0001:0002c410       __CIpow                    0042d410 f   LIBCMT:pow.obj
 0001:0002c44b       __CIpow_default            0042d44b f   LIBCMT:pow.obj
 0001:0002c464       __pow_default              0042d464     LIBCMT:pow.obj
 0001:0002c660       _floor                     0042d660 f   LIBCMT:floor_pentium4.obj
 0001:0002c6a0       __floor_pentium4           0042d6a0 f   LIBCMT:floor_pentium4.obj
 0001:0002c790       __alldiv                   0042d790 f   LIBCMT:lldiv.obj
 0001:0002c85c       __fFATN2                   0042d85c     LIBCMT:87triga.obj
 0001:0002c8ac       __rtpiby2                  0042d8ac     LIBCMT:87triga.obj
 0001:0002c8f0       __cintrindisp2             0042d8f0 f   LIBCMT:87cdisp.obj
 0001:0002c92e       __cintrindisp1             0042d92e f   LIBCMT:87cdisp.obj
 0001:0002c96b       __ctrandisp2               0042d96b f   LIBCMT:87cdisp.obj
 0001:0002cb01       __ctrandisp1               0042db01 f   LIBCMT:87cdisp.obj
 0001:0002cb34       __fload                    0042db34 f   LIBCMT:87cdisp.obj
 0001:0002cb70       __CIcos_pentium4           0042db70 f   LIBCMT:cos_pentium4.obj
 0001:0002cb88       __cos_pentium4             0042db88     LIBCMT:cos_pentium4.obj
 0001:0002cd20       __trandisp1                0042dd20 f   LIBCMT:87disp.obj
 0001:0002cd87       __trandisp2                0042dd87 f   LIBCMT:87disp.obj
 0001:0002ce13       __rttospopde               0042de13     LIBCMT:87disp.obj
 0001:0002ce18       __rttospop                 0042de18     LIBCMT:87disp.obj
 0001:0002ce1a       __rtnospop                 0042de1a     LIBCMT:87disp.obj
 0001:0002ce1c       __rttosnpop                0042de1c     LIBCMT:87disp.obj
 0001:0002ce1d       __rtnospopde               0042de1d     LIBCMT:87disp.obj
 0001:0002ce24       __rtzeropop                0042de24     LIBCMT:87disp.obj
 0001:0002ce26       __rtzeronpop               0042de26     LIBCMT:87disp.obj
 0001:0002ce2b       __rtonepop                 0042de2b     LIBCMT:87disp.obj
 0001:0002ce2d       __rtonenpop                0042de2d     LIBCMT:87disp.obj
 0001:0002ce32       __tosnan1                  0042de32     LIBCMT:87disp.obj
 0001:0002ce5d       __nosnan2                  0042de5d     LIBCMT:87disp.obj
 0001:0002ce5f       __tosnan2                  0042de5f     LIBCMT:87disp.obj
 0001:0002ce87       __nan2                     0042de87     LIBCMT:87disp.obj
 0001:0002cec6       __rtindfpop                0042dec6     LIBCMT:87disp.obj
 0001:0002cec8       __rtindfnpop               0042dec8     LIBCMT:87disp.obj
 0001:0002ced9       __rttosnpopde              0042ded9     LIBCMT:87disp.obj
 0001:0002cee3       __rtchsifneg               0042dee3     LIBCMT:87disp.obj
 0001:0002cef0       __twoToTOS                 0042def0 f   LIBCMT:common.obj
 0001:0002cf05       __load_CW                  0042df05 f   LIBCMT:common.obj
 0001:0002cf1c       __convertTOStoQNaN         0042df1c f   LIBCMT:common.obj
 0001:0002cf35       __fload_withFB             0042df35 f   LIBCMT:common.obj
 0001:0002cf78       __checkTOS_withFB          0042df78 f   LIBCMT:common.obj
 0001:0002cf8e       __fast_exit                0042df8e f   LIBCMT:common.obj
 0001:0002cf9b       __math_exit                0042df9b f   LIBCMT:common.obj
 0001:0002cfc5       __check_overflow_exit      0042dfc5 f   LIBCMT:common.obj
 0001:0002cfd9       __check_range_exit         0042dfd9 f   LIBCMT:common.obj
 0001:0002d080       __startTwoArgErrorHandling 0042e080 f   LIBCMT:genexcep.obj
 0001:0002d097       __startOneArgErrorHandling 0042e097 f   LIBCMT:genexcep.obj
 0001:0002d0e0       __CIsin_pentium4           0042e0e0 f   LIBCMT:sin_pentium4.obj
 0001:0002d0f8       __sin_pentium4             0042e0f8     LIBCMT:sin_pentium4.obj
 0001:0002d2b0       __CIlog10_pentium4         0042e2b0 f   LIBCMT:log10_pentium4.obj
 0001:0002d2c8       __log10_pentium4           0042e2c8     LIBCMT:log10_pentium4.obj
 0001:0002d551       __fFEXP                    0042e551     LIBCMT:87tran.obj
 0001:0002d5b8       __rtinfpopse               0042e5b8     LIBCMT:87tran.obj
 0001:0002d5ba       __rtinfnpopse              0042e5ba     LIBCMT:87tran.obj
 0001:0002d5ca       __fFLN                     0042e5ca     LIBCMT:87tran.obj
 0001:0002d67f       __rtinfpop                 0042e67f     LIBCMT:87tran.obj
 0001:0002d681       __rtinfnpop                0042e681     LIBCMT:87tran.obj
 0001:0002d69e       __ffexpm1                  0042e69e     LIBCMT:87tran.obj
 0001:0002d750       __CIpow_pentium4           0042e750 f   LIBCMT:pow_pentium4.obj
 0001:0002d769       __pow_pentium4             0042e769     LIBCMT:pow_pentium4.obj
 0001:0002e2b0       __d_inttype                0042f2b0 f   LIBCMT:powhlp.obj
 0001:0002e314       __powhlp                   0042f314 f   LIBCMT:powhlp.obj
 0001:0002e452       __floor_default            0042f452 f   LIBCMT:floor.obj
 0001:0002e523       __87except                 0042f523 f   LIBCMT:87except.obj
 0001:0002e620       _fdiv_main_routine         0042f620 f   LIBCMT:adj_fdiv.obj
 0001:0002e737       __adj_fdiv_r               0042f737 f   LIBCMT:adj_fdiv.obj
 0001:0002ebd6       __fdivp_sti_st             0042fbd6 f   LIBCMT:adj_fdiv.obj
 0001:0002ebe9       __fdivrp_sti_st            0042fbe9 f   LIBCMT:adj_fdiv.obj
 0001:0002ebfc       __adj_fdiv_m32             0042fbfc f   LIBCMT:adj_fdiv.obj
 0001:0002ec48       __adj_fdiv_m64             0042fc48 f   LIBCMT:adj_fdiv.obj
 0001:0002ec94       __adj_fdiv_m16i            0042fc94 f   LIBCMT:adj_fdiv.obj
 0001:0002ecc8       __adj_fdiv_m32i            0042fcc8 f   LIBCMT:adj_fdiv.obj
 0001:0002ecfc       __adj_fdivr_m32            0042fcfc f   LIBCMT:adj_fdiv.obj
 0001:0002ed48       __adj_fdivr_m64            0042fd48 f   LIBCMT:adj_fdiv.obj
 0001:0002ed94       __adj_fdivr_m16i           0042fd94 f   LIBCMT:adj_fdiv.obj
 0001:0002edc8       __adj_fdivr_m32i           0042fdc8 f   LIBCMT:adj_fdiv.obj
 0001:0002edfc       __safe_fdiv                0042fdfc f   LIBCMT:adj_fdiv.obj
 0001:0002ee11       __safe_fdivr               0042fe11 f   LIBCMT:adj_fdiv.obj
 0001:0002ee26       __fprem_common             0042fe26 f   LIBCMT:adj_fdiv.obj
 0001:0002f02c       __adj_fprem                0043002c f   LIBCMT:adj_fdiv.obj
 0001:0002f0de       __fprem1_common            004300de f   LIBCMT:adj_fdiv.obj
 0001:0002f2e4       __adj_fprem1               004302e4 f   LIBCMT:adj_fdiv.obj
 0001:0002f399       __safe_fprem               00430399 f   LIBCMT:adj_fdiv.obj
 0001:0002f39f       __safe_fprem1              0043039f f   LIBCMT:adj_fdiv.obj
 0001:0002f3a5       __adj_fpatan               004303a5 f   LIBCMT:adj_fdiv.obj
 0001:0002f3a8       __adj_fptan                004303a8 f   LIBCMT:adj_fdiv.obj
 0001:0002f3ab       __fpclass                  004303ab f   LIBCMT:ieeemisc.obj
 0002:00000000       __imp__CreateFileA@28      00431000     kernel32:KERNEL32.dll
 0002:00000004       __imp__PeekNamedPipe@24    00431004     kernel32:KERNEL32.dll
 0002:00000008       __imp__ClearCommError@12   00431008     kernel32:KERNEL32.dll
 0002:0000000c       __imp__WriteFile@20        0043100c     kernel32:KERNEL32.dll
 0002:00000010       __imp__ReadFile@20         00431010     kernel32:KERNEL32.dll
 0002:00000014       __imp__GetLastError@0      00431014     kernel32:KERNEL32.dll
 0002:00000018       __imp__GetFileType@4       00431018     kernel32:KERNEL32.dll
 0002:0000001c       __imp__CloseHandle@4       0043101c     kernel32:KERNEL32.dll
 0002:00000020       __imp__SetupComm@12        00431020     kernel32:KERNEL32.dll
 0002:00000024       __imp__SetPriorityClass@8  00431024     kernel32:KERNEL32.dll
 0002:00000028       __imp__GetCommState@8      00431028     kernel32:KERNEL32.dll
 0002:0000002c       __imp__GetCurrentProcess@0 0043102c     kernel32:KERNEL32.dll
 0002:00000030       __imp__QueryPerformanceCounter@4 00431030     kernel32:KERNEL32.dll
 0002:00000034       __imp__EscapeCommFunction@8 00431034     kernel32:KERNEL32.dll
 0002:00000038       __imp__SetCommState@8      00431038     kernel32:KERNEL32.dll
 0002:0000003c       __imp__SetCommTimeouts@8   0043103c     kernel32:KERNEL32.dll
 0002:00000040       __imp__Sleep@4             00431040     kernel32:KERNEL32.dll
 0002:00000044       __imp__Beep@8              00431044     kernel32:KERNEL32.dll
 0002:00000048       __imp__SetConsoleCtrlHandler@8 00431048     kernel32:KERNEL32.dll
 0002:0000004c       __imp__PurgeComm@8         0043104c     kernel32:KERNEL32.dll
 0002:00000050       __imp__QueryPerformanceFrequency@4 00431050     kernel32:KERNEL32.dll
 0002:00000054       __imp__OutputDebugStringA@4 00431054     kernel32:KERNEL32.dll
 0002:00000058       __imp__GetSystemTime@4     00431058     kernel32:KERNEL32.dll
 0002:0000005c       __imp__FreeLibrary@4       0043105c     kernel32:KERNEL32.dll
 0002:00000060       __imp__CreateEventA@16     00431060     kernel32:KERNEL32.dll
 0002:00000064       __imp__FormatMessageW@28   00431064     kernel32:KERNEL32.dll
 0002:00000068       __imp__GetOverlappedResult@16 00431068     kernel32:KERNEL32.dll
 0002:0000006c       __imp__GetProcAddress@8    0043106c     kernel32:KERNEL32.dll
 0002:00000070       __imp__LoadLibraryA@4      00431070     kernel32:KERNEL32.dll
 0002:00000074       __imp__CancelIo@4          00431074     kernel32:KERNEL32.dll
 0002:00000078       __imp__LocalFree@4         00431078     kernel32:KERNEL32.dll
 0002:0000007c       __imp__InitializeCriticalSection@4 0043107c     kernel32:KERNEL32.dll
 0002:00000080       __imp__LeaveCriticalSection@4 00431080     kernel32:KERNEL32.dll
 0002:00000084       __imp__EnterCriticalSection@4 00431084     kernel32:KERNEL32.dll
 0002:00000088       __imp__SetEndOfFile@4      00431088     kernel32:KERNEL32.dll
 0002:0000008c       __imp__HeapSize@12         0043108c     kernel32:KERNEL32.dll
 0002:00000090       __imp__WriteConsoleW@20    00431090     kernel32:KERNEL32.dll
 0002:00000094       __imp__GetConsoleOutputCP@0 00431094     kernel32:KERNEL32.dll
 0002:00000098       __imp__WriteConsoleA@20    00431098     kernel32:KERNEL32.dll
 0002:0000009c       __imp__RaiseException@16   0043109c     kernel32:KERNEL32.dll
 0002:000000a0       __imp__FlushFileBuffers@4  004310a0     kernel32:KERNEL32.dll
 0002:000000a4       __imp__GetLocaleInfoA@16   004310a4     kernel32:KERNEL32.dll
 0002:000000a8       __imp__GetStringTypeW@16   004310a8     kernel32:KERNEL32.dll
 0002:000000ac       __imp__GetStringTypeA@20   004310ac     kernel32:KERNEL32.dll
 0002:000000b0       __imp__SetFilePointer@16   004310b0     kernel32:KERNEL32.dll
 0002:000000b4       __imp__GetCurrentProcessId@0 004310b4     kernel32:KERNEL32.dll
 0002:000000b8       __imp__GetTickCount@0      004310b8     kernel32:KERNEL32.dll
 0002:000000bc       __imp__GetEnvironmentStringsW@0 004310bc     kernel32:KERNEL32.dll
 0002:000000c0       __imp__FreeEnvironmentStringsW@4 004310c0     kernel32:KERNEL32.dll
 0002:000000c4       __imp__GetEnvironmentStrings@0 004310c4     kernel32:KERNEL32.dll
 0002:000000c8       __imp__FreeEnvironmentStringsA@4 004310c8     kernel32:KERNEL32.dll
 0002:000000cc       __imp__RtlUnwind@16        004310cc     kernel32:KERNEL32.dll
 0002:000000d0       __imp__GetConsoleMode@8    004310d0     kernel32:KERNEL32.dll
 0002:000000d4       __imp__GetConsoleCP@0      004310d4     kernel32:KERNEL32.dll
 0002:000000d8       __imp__SetStdHandle@8      004310d8     kernel32:KERNEL32.dll
 0002:000000dc       __imp__GetModuleFileNameA@12 004310dc     kernel32:KERNEL32.dll
 0002:000000e0       __imp__VirtualAlloc@16     004310e0     kernel32:KERNEL32.dll
 0002:000000e4       __imp__VirtualFree@12      004310e4     kernel32:KERNEL32.dll
 0002:000000e8       __imp__HeapCreate@12       004310e8     kernel32:KERNEL32.dll
 0002:000000ec       __imp__HeapDestroy@4       004310ec     kernel32:KERNEL32.dll
 0002:000000f0       __imp__LCMapStringW@24     004310f0     kernel32:KERNEL32.dll
 0002:000000f4       __imp__MultiByteToWideChar@24 004310f4     kernel32:KERNEL32.dll
 0002:000000f8       __imp__LCMapStringA@24     004310f8     kernel32:KERNEL32.dll
 0002:000000fc       __imp__GetSystemTimeAsFileTime@4 004310fc     kernel32:KERNEL32.dll
 0002:00000100       __imp__HeapFree@12         00431100     kernel32:KERNEL32.dll
 0002:00000104       __imp__HeapAlloc@12        00431104     kernel32:KERNEL32.dll
 0002:00000108       __imp__HeapReAlloc@16      00431108     kernel32:KERNEL32.dll
 0002:0000010c       __imp__UnhandledExceptionFilter@4 0043110c     kernel32:KERNEL32.dll
 0002:00000110       __imp__SetUnhandledExceptionFilter@4 00431110     kernel32:KERNEL32.dll
 0002:00000114       __imp__WideCharToMultiByte@32 00431114     kernel32:KERNEL32.dll
 0002:00000118       __imp__GetModuleHandleA@4  00431118     kernel32:KERNEL32.dll
 0002:0000011c       __imp__ExitProcess@4       0043111c     kernel32:KERNEL32.dll
 0002:00000120       __imp__GetCommandLineA@0   00431120     kernel32:KERNEL32.dll
 0002:00000124       __imp__GetVersionExA@4     00431124     kernel32:KERNEL32.dll
 0002:00000128       __imp__GetProcessHeap@0    00431128     kernel32:KERNEL32.dll
 0002:0000012c       __imp__TerminateProcess@8  0043112c     kernel32:KERNEL32.dll
 0002:00000130       __imp__IsDebuggerPresent@0 00431130     kernel32:KERNEL32.dll
 0002:00000134       __imp__TlsGetValue@4       00431134     kernel32:KERNEL32.dll
 0002:00000138       __imp__TlsAlloc@0          00431138     kernel32:KERNEL32.dll
 0002:0000013c       __imp__TlsSetValue@8       0043113c     kernel32:KERNEL32.dll
 0002:00000140       __imp__TlsFree@4           00431140     kernel32:KERNEL32.dll
 0002:00000144       __imp__InterlockedIncrement@4 00431144     kernel32:KERNEL32.dll
 0002:00000148       __imp__SetLastError@4      00431148     kernel32:KERNEL32.dll
 0002:0000014c       __imp__GetCurrentThreadId@0 0043114c     kernel32:KERNEL32.dll
 0002:00000150       __imp__InterlockedDecrement@4 00431150     kernel32:KERNEL32.dll
 0002:00000154       __imp__GetCPInfo@8         00431154     kernel32:KERNEL32.dll
 0002:00000158       __imp__GetACP@0            00431158     kernel32:KERNEL32.dll
 0002:0000015c       __imp__GetOEMCP@0          0043115c     kernel32:KERNEL32.dll
 0002:00000160       __imp__SetHandleCount@4    00431160     kernel32:KERNEL32.dll
 0002:00000164       __imp__GetStdHandle@4      00431164     kernel32:KERNEL32.dll
 0002:00000168       __imp__GetStartupInfoA@4   00431168     kernel32:KERNEL32.dll
 0002:0000016c       __imp__DeleteCriticalSection@4 0043116c     kernel32:KERNEL32.dll
 0002:00000170       \177KERNEL32_NULL_THUNK_DATA 00431170     kernel32:KERNEL32.dll
 0002:00000174       __imp__SetupDiDestroyDeviceInfoList@4 00431174     setupapi:SETUPAPI.dll
 0002:00000178       __imp__SetupDiGetDeviceInterfaceDetailA@24 00431178     setupapi:SETUPAPI.dll
 0002:0000017c       __imp__SetupDiEnumDeviceInterfaces@20 0043117c     setupapi:SETUPAPI.dll
 0002:00000180       __imp__SetupDiGetClassDevsA@16 00431180     setupapi:SETUPAPI.dll
 0002:00000184       \177SETUPAPI_NULL_THUNK_DATA 00431184     setupapi:SETUPAPI.dll
 0002:00000188       __imp__waveInStart@4       00431188     winmm:WINMM.dll
 0002:0000018c       __imp__waveOutPrepareHeader@12 0043118c     winmm:WINMM.dll
 0002:00000190       __imp__waveOutGetNumDevs@0 00431190     winmm:WINMM.dll
 0002:00000194       __imp__waveInGetDevCapsA@12 00431194     winmm:WINMM.dll
 0002:00000198       __imp__waveOutOpen@24      00431198     winmm:WINMM.dll
 0002:0000019c       __imp__waveInUnprepareHeader@12 0043119c     winmm:WINMM.dll
 0002:000001a0       __imp__waveOutUnprepareHeader@12 004311a0     winmm:WINMM.dll
 0002:000001a4       __imp__waveOutGetDevCapsA@12 004311a4     winmm:WINMM.dll
 0002:000001a8       __imp__timeGetTime@0       004311a8     winmm:WINMM.dll
 0002:000001ac       __imp__waveInGetNumDevs@0  004311ac     winmm:WINMM.dll
 0002:000001b0       __imp__waveInAddBuffer@12  004311b0     winmm:WINMM.dll
 0002:000001b4       __imp__waveOutClose@4      004311b4     winmm:WINMM.dll
 0002:000001b8       __imp__waveInClose@4       004311b8     winmm:WINMM.dll
 0002:000001bc       __imp__waveOutWrite@12     004311bc     winmm:WINMM.dll
 0002:000001c0       __imp__timeGetDevCaps@8    004311c0     winmm:WINMM.dll
 0002:000001c4       __imp__timeBeginPeriod@4   004311c4     winmm:WINMM.dll
 0002:000001c8       __imp__waveInPrepareHeader@12 004311c8     winmm:WINMM.dll
 0002:000001cc       __imp__waveInOpen@24       004311cc     winmm:WINMM.dll
 0002:000001d0       \177WINMM_NULL_THUNK_DATA  004311d0     winmm:WINMM.dll
 0002:000001d4       __imp__closesocket@4       004311d4     WS2_32:WS2_32.dll
 0002:000001d8       __imp__send@16             004311d8     WS2_32:WS2_32.dll
 0002:000001dc       __imp__accept@12           004311dc     WS2_32:WS2_32.dll
 0002:000001e0       __imp__listen@8            004311e0     WS2_32:WS2_32.dll
 0002:000001e4       __imp____WSAFDIsSet@8      004311e4     WS2_32:WS2_32.dll
 0002:000001e8       __imp__socket@12           004311e8     WS2_32:WS2_32.dll
 0002:000001ec       __imp__bind@12             004311ec     WS2_32:WS2_32.dll
 0002:000001f0       __imp__recv@16             004311f0     WS2_32:WS2_32.dll
 0002:000001f4       __imp__sendto@24           004311f4     WS2_32:WS2_32.dll
 0002:000001f8       __imp__setsockopt@20       004311f8     WS2_32:WS2_32.dll
 0002:000001fc       __imp__htons@4             004311fc     WS2_32:WS2_32.dll
 0002:00000200       __imp__WSAGetLastError@0   00431200     WS2_32:WS2_32.dll
 0002:00000204       __imp__recvfrom@24         00431204     WS2_32:WS2_32.dll
 0002:00000208       __imp__WSAStartup@8        00431208     WS2_32:WS2_32.dll
 0002:0000020c       __imp__ioctlsocket@12      0043120c     WS2_32:WS2_32.dll
 0002:00000210       __imp__select@20           00431210     WS2_32:WS2_32.dll
 0002:00000214       \177WS2_32_NULL_THUNK_DATA 00431214     WS2_32:WS2_32.dll
 0002:00000218       ___xc_a                    00431218     LIBCMT:crt0init.obj
 0002:0000021c       ___xc_z                    0043121c     LIBCMT:crt0init.obj
 0002:00000220       ___xi_a                    00431220     LIBCMT:crt0init.obj
 0002:00000238       ___xi_z                    00431238     LIBCMT:crt0init.obj
 0002:0000023c       ___xp_a                    0043123c     LIBCMT:crt0init.obj
 0002:00000248       ___xp_z                    00431248     LIBCMT:crt0init.obj
 0002:0000024c       ___xt_a                    0043124c     LIBCMT:crt0init.obj
 0002:00000250       ___xt_z                    00431250     LIBCMT:crt0init.obj
 0002:000002c8       ??_C@_02LMMGGCAJ@?3?5?$AA@ 004312c8     LIBCMT:perror.obj
 0002:000002cc       ??_C@_0P@MIGLKIOC@CorExitProcess?$AA@ 004312cc     LIBCMT:crt0dat.obj
 0002:000002dc       ??_C@_0M@MBOPBNBK@mscoree?4dll?$AA@ 004312dc     LIBCMT:crt0dat.obj
 0002:000002f0       ??_C@_1O@CEDCILHN@?$AA?$CI?$AAn?$AAu?$AAl?$AAl?$AA?$CJ?$AA?$AA@ 004312f0     LIBCMT:output.obj
 0002:00000300       ??_C@_06OJHGLDPL@?$CInull?$CJ?$AA@ 00431300     LIBCMT:output.obj
 0002:00000308       ___lookuptable             00431308     LIBCMT:output.obj
 0002:00000364       ??_C@_0O@NLDKAIKN@EncodePointer?$AA@ 00431364     LIBCMT:tidtable.obj
 0002:00000374       ??_C@_0N@NHGLKGEC@KERNEL32?4DLL?$AA@ 00431374     LIBCMT:tidtable.obj
 0002:00000384       ??_C@_0O@KBPMFGHI@DecodePointer?$AA@ 00431384     LIBCMT:tidtable.obj
 0002:00000394       ??_C@_07PEJMOBNF@FlsFree?$AA@ 00431394     LIBCMT:tidtable.obj
 0002:0000039c       ??_C@_0M@JCPCPOEF@FlsSetValue?$AA@ 0043139c     LIBCMT:tidtable.obj
 0002:000003a8       ??_C@_0M@GDNOONDI@FlsGetValue?$AA@ 004313a8     LIBCMT:tidtable.obj
 0002:000003b4       ??_C@_08KNHFBNJ@FlsAlloc?$AA@ 004313b4     LIBCMT:tidtable.obj
 0002:00000440       ??_C@_13NOLLCAOD@?$AA?$AA?$AA?$AA@ 00431440     LIBCMT:a_map.obj
 0002:00000444       ??_C@_0P@GGKDKEEG@runtime?5error?5?$AA@ 00431444     LIBCMT:crt0msg.obj
 0002:00000454       ??_C@_0O@MJNIPGOH@TLOSS?5error?$AN?6?$AA@ 00431454     LIBCMT:crt0msg.obj
 0002:00000464       ??_C@_0N@BONNPDHF@SING?5error?$AN?6?$AA@ 00431464     LIBCMT:crt0msg.obj
 0002:00000474       ??_C@_0P@MBDAJNE@DOMAIN?5error?$AN?6?$AA@ 00431474     LIBCMT:crt0msg.obj
 0002:00000488       ??_C@_0JL@DFDOOABL@R6034?$AN?6An?5application?5has?5made?5a@ 00431488     LIBCMT:crt0msg.obj
 0002:00000528       ??_C@_0PH@EPAFIJ@R6033?$AN?6?9?5Attempt?5to?5use?5MSIL?5cod@ 00431528     LIBCMT:crt0msg.obj
 0002:00000620       ??_C@_0DD@BKEEABMM@R6032?$AN?6?9?5not?5enough?5space?5for?5lo@ 00431620     LIBCMT:crt0msg.obj
 0002:00000658       ??_C@_0GD@OFKILIED@R6031?$AN?6?9?5Attempt?5to?5initialize?5t@ 00431658     LIBCMT:crt0msg.obj
 0002:000006bc       ??_C@_0BP@LPMHJOKI@R6030?$AN?6?9?5CRT?5not?5initialized?$AN?6?$AA@ 004316bc     LIBCMT:crt0msg.obj
 0002:000006dc       ??_C@_0CF@KJDAIALP@R6028?$AN?6?9?5unable?5to?5initialize?5he@ 004316dc     LIBCMT:crt0msg.obj
 0002:00000704       ??_C@_0DF@GAKBPDFP@R6027?$AN?6?9?5not?5enough?5space?5for?5lo@ 00431704     LIBCMT:crt0msg.obj
 0002:0000073c       ??_C@_0DF@IBLNNAIG@R6026?$AN?6?9?5not?5enough?5space?5for?5st@ 0043173c     LIBCMT:crt0msg.obj
 0002:00000774       ??_C@_0CG@IOHKGFNJ@R6025?$AN?6?9?5pure?5virtual?5function?5c@ 00431774     LIBCMT:crt0msg.obj
 0002:0000079c       ??_C@_0DF@JIJJFJDC@R6024?$AN?6?9?5not?5enough?5space?5for?5_o@ 0043179c     LIBCMT:crt0msg.obj
 0002:000007d4       ??_C@_0CJ@EGEJHFME@R6019?$AN?6?9?5unable?5to?5open?5console?5@ 004317d4     LIBCMT:crt0msg.obj
 0002:00000800       ??_C@_0CB@GNHNIELH@R6018?$AN?6?9?5unexpected?5heap?5error?$AN?6@ 00431800     LIBCMT:crt0msg.obj
 0002:00000824       ??_C@_0CN@FOLDKNG@R6017?$AN?6?9?5unexpected?5multithread?5@ 00431824     LIBCMT:crt0msg.obj
 0002:00000854       ??_C@_0CM@FAHFJNHO@R6016?$AN?6?9?5not?5enough?5space?5for?5th@ 00431854     LIBCMT:crt0msg.obj
 0002:00000880       ??_C@_0JG@LBKMGKLD@?$AN?6This?5application?5has?5requested@ 00431880     LIBCMT:crt0msg.obj
 0002:00000918       ??_C@_0CM@FLCNIPKK@R6009?$AN?6?9?5not?5enough?5space?5for?5en@ 00431918     LIBCMT:crt0msg.obj
 0002:00000944       ??_C@_0CK@KMMJOAPP@R6008?$AN?6?9?5not?5enough?5space?5for?5ar@ 00431944     LIBCMT:crt0msg.obj
 0002:00000970       ??_C@_0CF@HOHMHDEK@R6002?$AN?6?9?5floating?5point?5not?5load@ 00431970     LIBCMT:crt0msg.obj
 0002:00000998       ??_C@_0CF@GOGNBNAK@Microsoft?5Visual?5C?$CL?$CL?5Runtime?5Lib@ 00431998     LIBCMT:crt0msg.obj
 0002:000009c0       ??_C@_02PHMGELLB@?6?6?$AA@ 004319c0     LIBCMT:crt0msg.obj
 0002:000009c4       ??_C@_03KHICJKCI@?4?4?4?$AA@ 004319c4     LIBCMT:crt0msg.obj
 0002:000009c8       ??_C@_0BH@DNAGHKFM@?$DMprogram?5name?5unknown?$DO?$AA@ 004319c8     LIBCMT:crt0msg.obj
 0002:000009e0       ??_C@_0BK@OFGJDLJJ@Runtime?5Error?$CB?6?6Program?3?5?$AA@ 004319e0     LIBCMT:crt0msg.obj
 0002:00000a68       ??_C@_03IIINPABG@tan?$AA@  00431a68     LIBCMT:libm_error.obj
 0002:00000a6c       ??_C@_03LALBNOCG@cos?$AA@  00431a6c     LIBCMT:libm_error.obj
 0002:00000a70       ??_C@_03BLEJJJBH@sin?$AA@  00431a70     LIBCMT:libm_error.obj
 0002:00000a74       ??_C@_04EHEDPDJG@modf?$AA@ 00431a74     LIBCMT:libm_error.obj
 0002:00000a7c       ??_C@_05PBJFFIGL@floor?$AA@ 00431a7c     LIBCMT:libm_error.obj
 0002:00000a84       ??_C@_04GFPJNGEK@ceil?$AA@ 00431a84     LIBCMT:libm_error.obj
 0002:00000a8c       ??_C@_04MLLJIGOK@atan?$AA@ 00431a8c     LIBCMT:libm_error.obj
 0002:00000a94       ??_C@_05EOHGHCHD@exp10?$AA@ 00431a94     LIBCMT:libm_error.obj
 0002:00000a9c       ??_C@_04PDIFKINK@acos?$AA@ 00431a9c     LIBCMT:libm_error.obj
 0002:00000aa4       ??_C@_04FIHNOPOL@asin?$AA@ 00431aa4     LIBCMT:libm_error.obj
 0002:00000aac       ??_C@_03MGHMBJCF@log?$AA@  00431aac     LIBCMT:libm_error.obj
 0002:00000ab0       ??_C@_05HGHHAHAP@log10?$AA@ 00431ab0     LIBCMT:libm_error.obj
 0002:00000ab8       ??_C@_03KHJOGHMM@exp?$AA@  00431ab8     LIBCMT:libm_error.obj
 0002:00000abc       ??_C@_03JGHBODFD@pow?$AA@  00431abc     LIBCMT:libm_error.obj
 0002:00000ac0       ??_C@_0BG@KLEAJEFJ@Illegal?5byte?5sequence?$AA@ 00431ac0     LIBCMT:syserr.obj
 0002:00000ad8       ??_C@_0BE@ICMCHPHH@Directory?5not?5empty?$AA@ 00431ad8     LIBCMT:syserr.obj
 0002:00000aec       ??_C@_0BJ@IHEHINLI@Function?5not?5implemented?$AA@ 00431aec     LIBCMT:syserr.obj
 0002:00000b08       ??_C@_0BD@CLHBCGPB@No?5locks?5available?$AA@ 00431b08     LIBCMT:syserr.obj
 0002:00000b1c       ??_C@_0BC@BEDIHIDK@Filename?5too?5long?$AA@ 00431b1c     LIBCMT:syserr.obj
 0002:00000b30       ??_C@_0BK@JAEBMJJM@Resource?5deadlock?5avoided?$AA@ 00431b30     LIBCMT:syserr.obj
 0002:00000b4c       ??_C@_0BB@FCBJFCAJ@Result?5too?5large?$AA@ 00431b4c     LIBCMT:syserr.obj
 0002:00000b60       ??_C@_0N@MMJPGLJK@Domain?5error?$AA@ 00431b60     LIBCMT:syserr.obj
 0002:00000b70       ??_C@_0M@LHEPIIOM@Broken?5pipe?$AA@ 00431b70     LIBCMT:syserr.obj
 0002:00000b7c       ??_C@_0P@PKCJJLLM@Too?5many?5links?$AA@ 00431b7c     LIBCMT:syserr.obj
 0002:00000b8c       ??_C@_0BG@DDBFNKBH@Read?9only?5file?5system?$AA@ 00431b8c     LIBCMT:syserr.obj
 0002:00000ba4       ??_C@_0N@FEHLOILP@Invalid?5seek?$AA@ 00431ba4     LIBCMT:syserr.obj
 0002:00000bb4       ??_C@_0BI@FEALHKLD@No?5space?5left?5on?5device?$AA@ 00431bb4     LIBCMT:syserr.obj
 0002:00000bcc       ??_C@_0P@LFMMIPAE@File?5too?5large?$AA@ 00431bcc     LIBCMT:syserr.obj
 0002:00000bdc       ??_C@_0CE@ONOKNLPF@Inappropriate?5I?1O?5control?5operat@ 00431bdc     LIBCMT:syserr.obj
 0002:00000c00       ??_C@_0BE@INBJMKGG@Too?5many?5open?5files?$AA@ 00431c00     LIBCMT:syserr.obj
 0002:00000c14       ??_C@_0BO@IIFBODJE@Too?5many?5open?5files?5in?5system?$AA@ 00431c14     LIBCMT:syserr.obj
 0002:00000c34       ??_C@_0BB@HMGGCEBG@Invalid?5argument?$AA@ 00431c34     LIBCMT:syserr.obj
 0002:00000c48       ??_C@_0P@NDHGCGKE@Is?5a?5directory?$AA@ 00431c48     LIBCMT:syserr.obj
 0002:00000c58       ??_C@_0BA@CJBACOOL@Not?5a?5directory?$AA@ 00431c58     LIBCMT:syserr.obj
 0002:00000c68       ??_C@_0P@NLEIANHE@No?5such?5device?$AA@ 00431c68     LIBCMT:syserr.obj
 0002:00000c78       ??_C@_0O@OAMDNOCP@Improper?5link?$AA@ 00431c78     LIBCMT:syserr.obj
 0002:00000c88       ??_C@_0M@NAAJNNGH@File?5exists?$AA@ 00431c88     LIBCMT:syserr.obj
 0002:00000c94       ??_C@_0BA@BIBLIOEK@Resource?5device?$AA@ 00431c94     LIBCMT:syserr.obj
 0002:00000ca4       ??_C@_0O@NIPGCINC@Unknown?5error?$AA@ 00431ca4     LIBCMT:syserr.obj
 0002:00000cb4       ??_C@_0M@LOEHLCJD@Bad?5address?$AA@ 00431cb4     LIBCMT:syserr.obj
 0002:00000cc0       ??_C@_0BC@HFNFNKAI@Permission?5denied?$AA@ 00431cc0     LIBCMT:syserr.obj
 0002:00000cd4       ??_C@_0BB@IMDKMPFB@Not?5enough?5space?$AA@ 00431cd4     LIBCMT:syserr.obj
 0002:00000ce8       ??_C@_0CB@EPFKGNAK@Resource?5temporarily?5unavailable@ 00431ce8     LIBCMT:syserr.obj
 0002:00000d0c       ??_C@_0BD@LOHELEP@No?5child?5processes?$AA@ 00431d0c     LIBCMT:syserr.obj
 0002:00000d20       ??_C@_0BE@NFGDDCEF@Bad?5file?5descriptor?$AA@ 00431d20     LIBCMT:syserr.obj
 0002:00000d34       ??_C@_0BC@HKPNECK@Exec?5format?5error?$AA@ 00431d34     LIBCMT:syserr.obj
 0002:00000d48       ??_C@_0BC@MFFGCDFL@Arg?5list?5too?5long?$AA@ 00431d48     LIBCMT:syserr.obj
 0002:00000d5c       ??_C@_0BK@DPKMCKJ@No?5such?5device?5or?5address?$AA@ 00431d5c     LIBCMT:syserr.obj
 0002:00000d78       ??_C@_0BD@KKNFOBBD@Input?1output?5error?$AA@ 00431d78     LIBCMT:syserr.obj
 0002:00000d8c       ??_C@_0BK@FJBOAFDK@Interrupted?5function?5call?$AA@ 00431d8c     LIBCMT:syserr.obj
 0002:00000da8       ??_C@_0BA@FKIAIBGA@No?5such?5process?$AA@ 00431da8     LIBCMT:syserr.obj
 0002:00000db8       ??_C@_0BK@FMDHKPNF@No?5such?5file?5or?5directory?$AA@ 00431db8     LIBCMT:syserr.obj
 0002:00000dd4       ??_C@_0BI@BJFCGOHL@Operation?5not?5permitted?$AA@ 00431dd4     LIBCMT:syserr.obj
 0002:00000dec       ??_C@_08INEPGKHH@No?5error?$AA@ 00431dec     LIBCMT:syserr.obj
 0002:00000e1c       ??_C@_0CG@PKBDLMEO@InitializeCriticalSectionAndSpin@ 00431e1c     LIBCMT:initcrit.obj
 0002:00000e44       ??_C@_0N@MDJJJHMB@kernel32?4dll?$AA@ 00431e44     LIBCMT:initcrit.obj
 0002:00000e58       ___lookuptable_s           00431e58     LIBCMT:outputs.obj
 0002:00000eb8       ___newctype                00431eb8     LIBCMT:ctype.obj
 0002:000011b8       __wctype                   004321b8     LIBCMT:ctype.obj
 0002:000013c0       ___newclmap                004323c0     LIBCMT:ctype.obj
 0002:00001540       ___newcumap                00432540     LIBCMT:ctype.obj
 0002:000016c0       ??_C@_08JCCMCCIL@HH?3mm?3ss?$AA@ 004326c0     LIBCMT:strftime.obj
 0002:000016cc       ??_C@_0BE@CKGJFCPC@dddd?0?5MMMM?5dd?0?5yyyy?$AA@ 004326cc     LIBCMT:strftime.obj
 0002:000016e0       ??_C@_08BPBNCDIB@MM?1dd?1yy?$AA@ 004326e0     LIBCMT:strftime.obj
 0002:000016ec       ??_C@_02CJNFDJBF@PM?$AA@   004326ec     LIBCMT:strftime.obj
 0002:000016f0       ??_C@_02DEDBPAFC@AM?$AA@   004326f0     LIBCMT:strftime.obj
 0002:000016f4       ??_C@_08EDHMEBNP@December?$AA@ 004326f4     LIBCMT:strftime.obj
 0002:00001700       ??_C@_08HCHEGEOA@November?$AA@ 00432700     LIBCMT:strftime.obj
 0002:0000170c       ??_C@_07JJNFCEND@October?$AA@ 0043270c     LIBCMT:strftime.obj
 0002:00001714       ??_C@_09BHHEALKD@September?$AA@ 00432714     LIBCMT:strftime.obj
 0002:00001720       ??_C@_06LBBHFDDG@August?$AA@ 00432720     LIBCMT:strftime.obj
 0002:00001728       ??_C@_04MIEPOIFP@July?$AA@ 00432728     LIBCMT:strftime.obj
 0002:00001730       ??_C@_04CNLMGBGM@June?$AA@ 00432730     LIBCMT:strftime.obj
 0002:00001738       ??_C@_05DMJDNLEJ@April?$AA@ 00432738     LIBCMT:strftime.obj
 0002:00001740       ??_C@_05HPCKOFNC@March?$AA@ 00432740     LIBCMT:strftime.obj
 0002:00001748       ??_C@_08GNJGEPFN@February?$AA@ 00432748     LIBCMT:strftime.obj
 0002:00001754       ??_C@_07CGJPFGJA@January?$AA@ 00432754     LIBCMT:strftime.obj
 0002:0000175c       ??_C@_03MKABNOCG@Dec?$AA@  0043275c     LIBCMT:strftime.obj
 0002:00001760       ??_C@_03JPJOFNIA@Nov?$AA@  00432760     LIBCMT:strftime.obj
 0002:00001764       ??_C@_03BMAOKBAD@Oct?$AA@  00432764     LIBCMT:strftime.obj
 0002:00001768       ??_C@_03GGCAPAJC@Sep?$AA@  00432768     LIBCMT:strftime.obj
 0002:0000176c       ??_C@_03IFJFEIGA@Aug?$AA@  0043276c     LIBCMT:strftime.obj
 0002:00001770       ??_C@_03LBGABGKK@Jul?$AA@  00432770     LIBCMT:strftime.obj
 0002:00001774       ??_C@_03IDFGHECI@Jun?$AA@  00432774     LIBCMT:strftime.obj
 0002:00001778       ??_C@_03CNMDKL@May?$AA@    00432778     LIBCMT:strftime.obj
 0002:0000177c       ??_C@_03LEOLGMJP@Apr?$AA@  0043277c     LIBCMT:strftime.obj
 0002:00001780       ??_C@_03ODNJBKGA@Mar?$AA@  00432780     LIBCMT:strftime.obj
 0002:00001784       ??_C@_03HJBDCHOM@Feb?$AA@  00432784     LIBCMT:strftime.obj
 0002:00001788       ??_C@_03JIHJHPIE@Jan?$AA@  00432788     LIBCMT:strftime.obj
 0002:0000178c       ??_C@_08INBOOONO@Saturday?$AA@ 0043278c     LIBCMT:strftime.obj
 0002:00001798       ??_C@_06JECMNKMI@Friday?$AA@ 00432798     LIBCMT:strftime.obj
 0002:000017a0       ??_C@_08HACCIKIA@Thursday?$AA@ 004327a0     LIBCMT:strftime.obj
 0002:000017ac       ??_C@_09DLIGFAKA@Wednesday?$AA@ 004327ac     LIBCMT:strftime.obj
 0002:000017b8       ??_C@_07BAAGCFCM@Tuesday?$AA@ 004327b8     LIBCMT:strftime.obj
 0002:000017c0       ??_C@_06JLEDEDGH@Monday?$AA@ 004327c0     LIBCMT:strftime.obj
 0002:000017c8       ??_C@_06OOPIFAJ@Sunday?$AA@ 004327c8     LIBCMT:strftime.obj
 0002:000017d0       ??_C@_03FEFJNEK@Sat?$AA@   004327d0     LIBCMT:strftime.obj
 0002:000017d4       ??_C@_03IDIOELNC@Fri?$AA@  004327d4     LIBCMT:strftime.obj
 0002:000017d8       ??_C@_03IOFIKPDN@Thu?$AA@  004327d8     LIBCMT:strftime.obj
 0002:000017dc       ??_C@_03MHOMLAJA@Wed?$AA@  004327dc     LIBCMT:strftime.obj
 0002:000017e0       ??_C@_03NAGEINEP@Tue?$AA@  004327e0     LIBCMT:strftime.obj
 0002:000017e4       ??_C@_03PDAGKDH@Mon?$AA@   004327e4     LIBCMT:strftime.obj
 0002:000017e8       ??_C@_03KOEHGMDN@Sun?$AA@  004327e8     LIBCMT:strftime.obj
 0002:000017ec       ??_C@_0BI@DFKBFLJE@GetProcessWindowStation?$AA@ 004327ec     LIBCMT:crtmbox.obj
 0002:00001804       ??_C@_0BK@CIDNPOGP@GetUserObjectInformationA?$AA@ 00432804     LIBCMT:crtmbox.obj
 0002:00001820       ??_C@_0BD@HHGDFDBJ@GetLastActivePopup?$AA@ 00432820     LIBCMT:crtmbox.obj
 0002:00001834       ??_C@_0BA@HNOPNCHB@GetActiveWindow?$AA@ 00432834     LIBCMT:crtmbox.obj
 0002:00001844       ??_C@_0M@CHKKJDAI@MessageBoxA?$AA@ 00432844     LIBCMT:crtmbox.obj
 0002:00001850       ??_C@_0L@NDEGIDAG@USER32?4DLL?$AA@ 00432850     LIBCMT:crtmbox.obj
 0002:0000185c       __FPinit                   0043285c     LIBCMT:fpinit.obj
 0002:00001860       __FPmtinit                 00432860     LIBCMT:fpinit.obj
 0002:00001864       __FPmtterm                 00432864     LIBCMT:fpinit.obj
 0002:00001868       ??_C@_0L@KDOEJCKC@_nextafter?$AA@ 00432868     LIBCMT:fpexcept.obj
 0002:00001874       ??_C@_05JGDBENOH@_logb?$AA@ 00432874     LIBCMT:fpexcept.obj
 0002:0000187c       ??_C@_03ONILCKOB@_yn?$AA@  0043287c     LIBCMT:fpexcept.obj
 0002:00001880       ??_C@_03NAKIGLHK@_y1?$AA@  00432880     LIBCMT:fpexcept.obj
 0002:00001884       ??_C@_03MJLDFKDL@_y0?$AA@  00432884     LIBCMT:fpexcept.obj
 0002:00001888       ??_C@_05GKKHEGJL@frexp?$AA@ 00432888     LIBCMT:fpexcept.obj
 0002:00001890       ??_C@_04KEPJIHGP@fmod?$AA@ 00432890     LIBCMT:fpexcept.obj
 0002:00001898       ??_C@_06MEIMCGCF@_hypot?$AA@ 00432898     LIBCMT:fpexcept.obj
 0002:000018a0       ??_C@_05KBKMEMPO@_cabs?$AA@ 004328a0     LIBCMT:fpexcept.obj
 0002:000018a8       ??_C@_05CEJMAHNP@ldexp?$AA@ 004328a8     LIBCMT:fpexcept.obj
 0002:000018b0       ??_C@_04ODHECPBC@fabs?$AA@ 004328b0     LIBCMT:fpexcept.obj
 0002:000018b8       ??_C@_04EIAKFFMI@sqrt?$AA@ 004328b8     LIBCMT:fpexcept.obj
 0002:000018c0       ??_C@_05KNGEOGJB@atan2?$AA@ 004328c0     LIBCMT:fpexcept.obj
 0002:000018c8       ??_C@_04FJHINJAO@tanh?$AA@ 004328c8     LIBCMT:fpexcept.obj
 0002:000018d0       ??_C@_04HPJJNFIM@cosh?$AA@ 004328d0     LIBCMT:fpexcept.obj
 0002:000018d8       ??_C@_04COOMCNPB@sinh?$AA@ 004328d8     LIBCMT:fpexcept.obj
 0002:000018e0       ___dnames                  004328e0     LIBCMT:timeset.obj
 0002:000018f8       ___mnames                  004328f8     LIBCMT:timeset.obj
 0002:00001920       ??_C@_05KLBDPFGC@e?$CL000?$AA@ 00432920     LIBCMT:cvt.obj
 0002:00001928       __real@4150017ec0000000    00432928     LIBCMT:testfdiv.obj
 0002:00001930       __real@4147ffff80000000    00432930     LIBCMT:testfdiv.obj
 0002:00001938       ??_C@_0BK@NHEOCAHP@IsProcessorFeaturePresent?$AA@ 00432938     LIBCMT:testfdiv.obj
 0002:00001954       ??_C@_08CPNIBGIE@KERNEL32?$AA@ 00432954     LIBCMT:testfdiv.obj
 0002:00001960       ??_C@_07GPDNMNG@CONOUT$?$AA@ 00432960     LIBCMT:initcon.obj
 0002:00001968       ??_C@_06IMKFLFPG@1?$CDQNAN?$AA@ 00432968     LIBCMT:x10fout.obj
 0002:00001970       ??_C@_05DNEBIAHO@1?$CDINF?$AA@ 00432970     LIBCMT:x10fout.obj
 0002:00001978       ??_C@_05PHHOCPM@1?$CDIND?$AA@ 00432978     LIBCMT:x10fout.obj
 0002:00001980       ??_C@_06PGGFOGJG@1?$CDSNAN?$AA@ 00432980     LIBCMT:x10fout.obj
 0002:00001988       ??_C@_0BM@FHENNDFE@Sending?5Packet?5Frame?5Len?5?$CFd?$AA@ 00432988     afskModule.obj
 0002:000019a8       _CRCTAB                    004329a8     ARDOPCommon.obj
 0002:00001ba8       _BoolString                00432ba8     Waveout1.obj
 0002:00001bb4       _ProductName               00432bb4     ARDOPC.obj
 0002:00001bc0       _xCRCTAB                   00432bc0     SCSHostInterface.obj
 0002:00001dc0       _defaultPacLen             00432dc0     pktSession.obj
 0002:00001e00       _pktMod                    00432e00     pktARDOP.obj
 0002:00001ec0       _pktBW                     00432ec0     pktARDOP.obj
 0002:00001f00       _pktCarriers               00432f00     pktARDOP.obj
 0002:00001f40       _pktFSK                    00432f40     pktARDOP.obj
 0002:00001f80       _afsk_costab               00432f80     costab.obj
 0002:00002380       _ARQBandwidths             00433380     ARQ.obj
 0002:000023f0       _ARQSubStates              004333f0     ARQ.obj
 0002:00002460       _int50BaudTwoToneLeaderTemplate 00433460     ardopSampleArrays.obj
 0002:00002640       _intFSK50bdCarTemplate     00433640     ardopSampleArrays.obj
 0002:00003cc0       _intQAM50bdCarTemplate     00434cc0     ardopSampleArrays.obj
 0002:00006600       _ProductVersion            00437600     ARDOPC.obj
 0002:00006610       _ARDOPStates               00437610     ARDOPC.obj
 0002:00006658       _ARDOPModes                00437658     ARDOPC.obj
 0002:0000666c       _bytValidFrameTypesALL     0043766c     ARDOPC.obj
 0002:0000669c       _bytValidFrameTypesISS     0043769c     ARDOPC.obj
 0002:000066a8       _strAllDataModes           004376a8     ARDOPC.obj
 0002:00006788       _Rate                      00437788     ARDOPC.obj
 0002:00006808       _FrameSize                 00437808     ARDOPC.obj
 0002:00006888       _strFrameType              00437888     ARDOPC.obj
 0002:00006d08       _shortFrameType            00437d08     ARDOPC.obj
 0002:00007008       ??_C@_04KOHEBHGC@4FSK?$AA@ 00438008     ARDOPC.obj
 0002:00007010       ??_C@_04NLAGBPCB@4PSK?$AA@ 00438010     ARDOPC.obj
 0002:00007018       ??_C@_05OIEEHJAK@16QAM?$AA@ 00438018     ARDOPC.obj
 0002:00007020       ??_C@_06GILAJCLB@16QAMR?$AA@ 00438020     ARDOPC.obj
 0002:00007028       ??_C@_05MEDPCJJH@4PSKR?$AA@ 00438028     ARDOPC.obj
 0002:00007030       ??_C@_02NBMCHJGB@CQ?$AA@   00438030     ARDOPC.obj
 0002:00007034       ??_C@_05CEHMOPDA@No?5GS?$AA@ 00438034     ARDOPC.obj
 0002:0000703c       ??_C@_0N@KPLPPDHJ@?5?$CFs?3?$FLNo?5GS?$FN?5?$AA@ 0043803c     ARDOPC.obj
 0002:0000704c       ??_C@_09FCIAPBKJ@?5?$CFs?3?$FL?$CFs?$FN?5?$AA@ 0043804c     ARDOPC.obj
 0002:00007058       ??_C@_03OJBHPKML@IDF?$AA@  00438058     ARDOPC.obj
 0002:0000705c       ??_C@_00CNPNBAHC@?$AA@     0043805c     ARDOPC.obj
 0002:00007060       ??_C@_04PFOHOKJK@?5?5?5?5?$AA@ 00438060     ARDOPC.obj
 0002:00007068       ??_C@_08GGFKNFHG@?5?5?5?5?5?5?5?5?$AA@ 00438068     ARDOPC.obj
 0002:00007074       ??_C@_03LDPEHNKI@?9?$CFd?$AA@ 00438074     ARDOPC.obj
 0002:00007078       ??_C@_03PMLFOLGP@?9?$CFc?$AA@ 00438078     ARDOPC.obj
 0002:0000707c       ??_C@_08BMJCPEED@BUFFER?50?$AA@ 0043807c     ARDOPC.obj
 0002:00007088       ??_C@_09PELFENOG@BUFFER?5?$CFd?$AA@ 00438088     ARDOPC.obj
 0002:00007094       ??_C@_0BF@DABGBADG@Repeating?5Last?5Frame?$AA@ 00438094     ARDOPC.obj
 0002:000070b0       ??_C@_0FG@EEOPIPME@ARDOPprotocol?4tmrSendTimeout?$FN?5?5A@ 004380b0     ARDOPC.obj
 0002:00007108       ??_C@_0N@HLEBDOBD@DISCONNECTED?$AA@ 00438108     ARDOPC.obj
 0002:00007118       ??_C@_0CM@MLOPGBEH@STATUS?5ARQ?5Timeout?5from?5Protocol@ 00438118     ARDOPC.obj
 0002:00007148       ??_C@_0FM@HONCEPPF@ARDOPprotocol?4tmrIRSPendingTimeo@ 00438148     ARDOPC.obj
 0002:000071a4       ??_C@_0DL@JKFLKFJC@STATUS?5ARQ?5CONNECT?5REQUEST?5TIMEO@ 004381a4     ARDOPC.obj
 0002:000071e0       ??_C@_0DN@JOANKNOA@?$FLARDOPprotocol?4tmrFinalID_Elapse@ 004381e0     ARDOPC.obj
 0002:00007220       ??_C@_09JPFJOAGD@BUSY?5TRUE?$AA@ 00438220     ARDOPC.obj
 0002:0000722c       ??_C@_0L@FMOFLFH@BUSY?5FALSE?$AA@ 0043822c     ARDOPC.obj
 0002:00007238       ??_C@_0BD@BIMDHDCJ@?$FLSendCQ?$FN?5Repeat?$DN?$CFd?$AA@ 00438238     ARDOPC.obj
 0002:0000724c       ??_C@_0DF@KDHJAGKJ@?$FLSendPING?$FN?5strMycall?$DN?5?$CFs?5strTarg@ 0043824c     ARDOPC.obj
 0002:00007284       ??_C@_0CF@BMIAELIB@ProcessPingFrame?5Protocol?5State?5@ 00438284     ARDOPC.obj
 0002:000072ac       ??_C@_0CP@HABNKLL@?$FLProcessPingFrame?$FN?5PING?5from?5?$CFs?5@ 004382ac     ARDOPC.obj
 0002:000072dc       ??_C@_09GCEKNMGL@PINGREPLY?$AA@ 004382dc     ARDOPC.obj
 0002:000072e8       ??_C@_0O@FNFOGJPJ@CANCELPENDING?$AA@ 004382e8     ARDOPC.obj
 0002:000072f8       ??_C@_0BE@IHPHBOAB@?$FLProcessCQFrame?$FN?5?$CFs?$AA@ 004382f8     ARDOPC.obj
 0002:0000730c       ??_C@_0N@MLBOBHLL@NEWSTATE?5?$CFs?5?$AA@ 0043830c     ARQ.obj
 0002:0000731c       ??_C@_0DE@KOIIEKOA@STATUS?5END?5NOT?5RECEIVED?5CLOSING?5@ 0043831c     ARQ.obj
 0002:00007350       ??_C@_0BC@DLKOKLBB@Repeating?5DISC?5?$CFd?$AA@ 00438350     ARQ.obj
 0002:00007364       ??_C@_0BN@KGNMJDOD@STATUS?5CONNECT?5TO?5?$CFs?5FAILED?$CB?$AA@ 00438364     ARQ.obj
 0002:00007384       ??_C@_0BE@KELAEECA@STATUS?5END?5ARQ?5CALL?$AA@ 00438384     ARQ.obj
 0002:00007398       ??_C@_0EL@BLLCLBPI@?$FLARDOPprotocol?4GetNexARQFrame?$FN?5T@ 00438398     ARQ.obj
 0002:000073e4       ??_C@_04HDOCAJNK@?$CFs?$CFs?$AA@ 004383e4     ARQ.obj
 0002:000073ec       ??_C@_0DK@HGHNHILL@?$FLARDOPprotocol?4Gearshift_2?$FN?5dblQ@ 004383ec     ARQ.obj
 0002:00007428       ??_C@_0GD@EAFDOGOC@?$FLARDOPprotocol?4Gearshift_2?$FN?5?5Shi@ 00438428     ARQ.obj
 0002:00007490       ??_C@_0EA@PKNGAEIF@?$FLARDOPprotocol?4Gearshift_2?$FN?5?5No?5@ 00438490     ARQ.obj
 0002:000074d0       ??_C@_0FP@JLOPCMLC@?$FLARDOPprotocol?4Gearshift_2?$FN?5?5Shi@ 004384d0     ARQ.obj
 0002:00007530       ??_C@_0DH@CLIIKLEC@?$FLARDOPprotocol?4Gearshift_2?$FN?5?5No?5@ 00438530     ARQ.obj
 0002:00007568       ??_C@_0EF@EANKODCH@?$FLARDOPProtocol?4SendData?$FN?5Sending@ 00438568     ARQ.obj
 0002:000075b0       ??_C@_0EF@FIIELBGE@?$FLARDOPprotocol?4SendData?$FN?5DataToS@ 004385b0     ARQ.obj
 0002:000075f8       ??_C@_0EJ@MOMBMBJP@?$FLARDOPprotocol?4SendData?$FN?5?5Send?5I@ 004385f8     ARQ.obj
 0002:00007644       ??_C@_0DI@MGPOAPBD@?$FLARDOPprotocol?4GetNextFrameData?$FN@ 00438644     ARQ.obj
 0002:0000767c       ??_C@_0L@CKCNPPFP@Shift?5Down?$AA@ 0043867c     ARQ.obj
 0002:00007688       ??_C@_08HIIMLEAB@Shift?5Up?$AA@ 00438688     ARQ.obj
 0002:00007694       ??_C@_0DK@FHEJEM@?$FLARDOPprotocol?4GetNextFrameData?$FN@ 00438694     ARQ.obj
 0002:000076d0       ??_C@_0DE@HILHIEMK@?$FLARDOPprotocol?4GetNextFrameData?$FN@ 004386d0     ARQ.obj
 0002:00007704       ??_C@_0L@EHOLDHLN@?5?$FL?$CFs?5?$DO?5?$CFs?$FN?$AA@ 00438704     ARQ.obj
 0002:00007710       ??_C@_03DBILIJHA@ARQ?$AA@  00438710     ARQ.obj
 0002:00007714       ??_C@_0BJ@KJEPLIKM@Time?5since?5received?5?$DN?5?$CFd?$AA@ 00438714     ARQ.obj
 0002:00007730       ??_C@_0HP@LOLEKAEM@?$FLARDOPprotocol?4ProcessRcvdARQFra@ 00438730     ARQ.obj
 0002:000077b0       ??_C@_0BJ@MFKHLDJB@CONREQ?5to?5?$CFs?5Listen?5?$DN?5?$CFd?$AA@ 004387b0     ARQ.obj
 0002:000077d0       ??_C@_0IK@HIIIIMPF@?$FLProcessRcvdARQFrame?$FN?5Con?5Req?5Bl@ 004387d0     ARQ.obj
 0002:0000785c       ??_C@_0BA@NNHABDKD@REJECTEDBUSY?5?$CFs?$AA@ 0043885c     ARQ.obj
 0002:0000786c       ??_C@_0DO@OBBPLHMM@STATUS?5ARQ?5CONNECTION?5REQUEST?5FR@ 0043886c     ARQ.obj
 0002:000078ac       ??_C@_09PLGMOKGH@TARGET?5?$CFs?$AA@ 004388ac     ARQ.obj
 0002:000078b8       ??_C@_0O@OMMHMJAK@REJECTEDBW?5?$CFs?$AA@ 004388b8     ARQ.obj
 0002:000078c8       ??_C@_0CF@GAOEEFDH@STATUS?5ARQ?5CONNECTION?5REJECTED?5B@ 004388c8     ARQ.obj
 0002:000078f0       ??_C@_0EB@IADMAIC@STATUS?5ARQ?5CONNECTION?5FROM?5?$CFs?5RE@ 004388f0     ARQ.obj
 0002:00007934       ??_C@_0BF@CIBIIEOH@CONNECTED?5?$CFs?5?$CFd?5?$FL?$CFs?$FN?$AA@ 00438934     ARQ.obj
 0002:0000794c       ??_C@_0DG@EELIBHNI@STATUS?5ARQ?5CONNECTION?5ESTABLISHE@ 0043894c     ARQ.obj
 0002:00007988       ??_C@_0GN@DFDOCLEK@?$FLARDOPprotocol?4ProcessRcvdARQFra@ 00438988     ARQ.obj
 0002:000079f8       ??_C@_0CE@KGIEGGGH@STATUS?5ARQ?5CONNECTION?5ENDED?5WITH@ 004389f8     ARQ.obj
 0002:00007a20       ??_C@_0GM@LICJIEAP@?$FLARDOPprotocol?4ProcessRcvdARQFra@ 00438a20     ARQ.obj
 0002:00007a90       ??_C@_0FP@KMPOBNAK@?$FLARDOPprotocol?4ProcessRcvdARQFra@ 00438a90     ARQ.obj
 0002:00007af0       ??_C@_0FD@PKJGCPNL@?$FLARDOPprotocol?4ProcessRcvdARQFra@ 00438af0     ARQ.obj
 0002:00007b44       ??_C@_0CP@JLDOIPPD@STATUS?5QUEUE?5BREAK?5new?5Protocol?5@ 00438b44     ARQ.obj
 0002:00007b78       ??_C@_0EN@DGBJCBFE@?$FLARDOPprotocol?4ProcessRcvdARQFra@ 00438b78     ARQ.obj
 0002:00007bc8       ??_C@_0ED@DEBHKPEL@?$FLARDOPprotocol?4ProcessRcvdARQFra@ 00438bc8     ARQ.obj
 0002:00007c10       ??_C@_0HD@FGPKIEIM@?$FLARDOPprotocol?4ProcessRcvdARQFra@ 00438c10     ARQ.obj
 0002:00007c88       ??_C@_0IC@JHCMIIMD@?$FLARDOPprotocol?4ProcessRcvdARQFra@ 00438c88     ARQ.obj
 0002:00007d10       ??_C@_0HO@IMLCDKJP@?$FLARDOPprotocol?4ProcessRcvdARQFra@ 00438d10     ARQ.obj
 0002:00007d90       ??_C@_0HB@KDOJMJKL@?$FLARDOPprotocol?4ProcessedRcvdARQF@ 00438d90     ARQ.obj
 0002:00007e08       ??_C@_0FJ@HMKKJOGJ@?$FLARDOPprotocol?4ProcessRcvdARQFra@ 00438e08     ARQ.obj
 0002:00007e64       ??_C@_0DO@HCHDNODE@STATUS?5BREAK?5received?5from?5Proto@ 00438e64     ARQ.obj
 0002:00007ea8       ??_C@_0FF@MJFGMBHE@?$FLARDOPprotocol?4ProcessRcvdARQFra@ 00438ea8     ARQ.obj
 0002:00007f00       ??_C@_0CF@EGPEFEDP@STATUS?5ARQ?5CONNECTION?5ENDED?5WITH@ 00438f00     ARQ.obj
 0002:00007f28       ??_C@_0EK@LJBCHEOL@?$FLARDOPprotocol?4ProcessRcvdARQFra@ 00438f28     ARQ.obj
 0002:00007f78       ??_C@_0FJ@FHKGKBOK@?$FLARDOPprotocol?4ProcessRcvdARQFra@ 00438f78     ARQ.obj
 0002:00007fd8       ??_C@_0FG@NFGAJEAL@?$FLARDOPprotocol?4ProcessRcvdARQFra@ 00438fd8     ARQ.obj
 0002:00008030       ??_C@_0DL@CCIAGBAK@STATUS?5ARQ?5CONNECTION?5REJECTED?5B@ 00439030     ARQ.obj
 0002:00008070       ??_C@_0FE@GMPNIBPC@?$FLARDOPprotocol?4ProcessRcvdARQFra@ 00439070     ARQ.obj
 0002:000080c4       ??_C@_0DH@JLEAFCGK@STATUS?5ARQ?5CONNECTION?5REJECTED?5B@ 004390c4     ARQ.obj
 0002:000080fc       ??_C@_0DM@EJBNKEMM@?$FLARDOPprotocol?4ProcessRcvdARQFra@ 004390fc     ARQ.obj
 0002:00008138       ??_C@_0EB@BJDIHDBK@?$FLARDOPprotocol?4ProcessRcvdARQFra@ 00439138     ARQ.obj
 0002:00008180       ??_C@_0FL@NBCGIINB@?$FLARDOPprotocol?4ProcessRcvdARQFra@ 00439180     ARQ.obj
 0002:000081dc       ??_C@_0BA@JAAENANL@CONNECTED?5?$CFs?5?$CFd?$AA@ 004391dc     ARQ.obj
 0002:000081ec       ??_C@_0DO@NLAMEEFI@STATUS?5ARQ?5CONNECTION?5ESTABLISHE@ 004391ec     ARQ.obj
 0002:00008230       ??_C@_0FL@BOOFHDFI@?$FLARDOPprotocol?4ProcessRcvdARQFra@ 00439230     ARQ.obj
 0002:00008290       ??_C@_0GF@FEOOBEJO@?$FLARDOPprotocol?4ProcessRcvdARQFra@ 00439290     ARQ.obj
 0002:000082f8       ??_C@_0HP@HJEDHLMC@?$FLARDOPprotocol?4ProcessRcvdARQFra@ 004392f8     ARQ.obj
 0002:00008378       ??_C@_0DN@MFCHNOAN@STATUS?5BREAK?5received?5from?5Proto@ 00439378     ARQ.obj
 0002:000083b8       ??_C@_0BC@MNGIOAAA@Shouldnt?5get?5Here?$AA@ 004393b8     ARQ.obj
 0002:000083d0       ??_C@_0EO@GPJLEPLH@?$FLSendARQConnectRequest?$FN?5strMycal@ 004393d0     ARQ.obj
 0002:00008420       ??_C@_0EM@FLAFFGCH@?$FLARDOPprotocol?4CheckForDisconnec@ 00439420     ARQ.obj
 0002:0000846c       ??_C@_0CB@JPBHCHDE@STATUS?5INITIATING?5ARQ?5DISCONNECT@ 0043946c     ARQ.obj
 0002:00008490       ??_C@_0EF@DGIBIGGO@?$FLARDOPprotocol?4Break?$FN?5?$HMBREAK?5com@ 00439490     ARQ.obj
 0002:000084d8       ??_C@_0EB@POCMKPLA@?$FLARDOPprotocol?4Break?$FN?5BREAK?5comm@ 004394d8     ARQ.obj
 0002:00008520       ??_C@_0FN@LPOFBIJD@?$CK?$CK?$CK?$CK?$CK?$CK?$CK?$CK?$CK?$CK?$CK?$CK?$CK?$CK?$CK?$CK?$CK?$CK?$CK?$CK?$CK?$CK?$CK?$CK?$CK?5ARQ?5se@ 00439520     ARQ.obj
 0002:00008580       ??_C@_0FA@EMMHBIJA@?5?5?5?5?5LeaderDetects?$DN?5?$CFd?5?5?5AvgLead@ 00439580     ARQ.obj
 0002:000085d0       ??_C@_0DJ@NNKGOELD@?5?5?5?5?5AvgCorrelationMax?3MaxProd?$DN?5@ 004395d0     ARQ.obj
 0002:00008610       ??_C@_0FL@BFMIBGGA@?5?5?5?5?5FrameSyncs?$DN?$CFd?5?5Good?5Frame?5T@ 00439610     ARQ.obj
 0002:0000866c       ??_C@_0DI@CJABMHIO@?5?5?5?5?5Avg?5Frame?5Type?5decode?5dista@ 0043966c     ARQ.obj
 0002:000086a4       ??_C@_01CLKCMJKC@?5?$AA@   004396a4     ARQ.obj
 0002:000086a8       ??_C@_06PNOPKNNG@?5?5FSK?3?$AA@ 004396a8     ARQ.obj
 0002:000086b0       ??_C@_0GP@IIJAIDLE@?5?5?5?5?5Good?5FSK?5Data?5Frame?5Decodes@ 004396b0     ARQ.obj
 0002:00008720       ??_C@_0GJ@IBOPOCHB@?5?5?5?5?5AccumFSKTracking?$DN?5?$CFd?5?5?5over@ 00439720     ARQ.obj
 0002:0000878c       ??_C@_06BCEPMPPE@?5?5PSK?3?$AA@ 0043978c     ARQ.obj
 0002:00008798       ??_C@_0GO@GDOGHLNG@?5?5?5?5?5Good?5PSK?5Data?5Frame?5Decodes@ 00439798     ARQ.obj
 0002:00008808       ??_C@_0EA@PJAILLGO@?5?5?5?5?5AccumPSKTracking?$DN?$CFd?5?5?$CFd?5att@ 00439808     ARQ.obj
 0002:00008848       ??_C@_06NBLCAFOC@?5?5QAM?3?$AA@ 00439848     ARQ.obj
 0002:00008850       ??_C@_0GO@GMFOBHCI@?5?5?5?5?5Good?5QAM?5Data?5Frame?5Decodes@ 00439850     ARQ.obj
 0002:000088c0       ??_C@_0EA@EKKJCAAD@?5?5?5?5?5AccumQAMTracking?$DN?$CFd?5?5?$CFd?5att@ 004398c0     ARQ.obj
 0002:00008900       ??_C@_0FI@CMBBHKJA@?5?5Squelch?$DN?5?$CFd?5BusyDet?$DN?5?$CFd?5Mode?5S@ 00439900     ARQ.obj
 0002:00008958       ??_C@_0BK@PFFACMFH@?5?5Received?5Frame?5Quality?3?$AA@ 00439958     ARQ.obj
 0002:00008974       ??_C@_0CI@MJAGGGAP@?5?5?5?5?5Avg?54FSK?5Quality?$DN?$CFd?5on?5?$CFd?5f@ 00439974     ARQ.obj
 0002:0000899c       ??_C@_0CI@IFKGIDMD@?5?5?5?5?5Avg?58FSK?5Quality?$DN?$CFd?5on?5?$CFd?5f@ 0043999c     ARQ.obj
 0002:000089c4       ??_C@_0CJ@DGMNJLDL@?5?5?5?5?5Avg?516FSK?5Quality?$DN?$CFd?5on?5?$CFd?5@ 004399c4     ARQ.obj
 0002:000089f0       ??_C@_0CI@DAKIBADN@?5?5?5?5?5Avg?54PSK?5Quality?$DN?$CFd?5on?5?$CFd?5f@ 004399f0     ARQ.obj
 0002:00008a18       ??_C@_0CI@HMAIPFPB@?5?5?5?5?5Avg?58PSK?5Quality?$DN?$CFd?5on?5?$CFd?5f@ 00439a18     ARQ.obj
 0002:00008a40       ??_C@_0CH@MAJNALGK@?5?5?5?5?5Avg?5QAM?5Quality?$DN?$CFd?5on?5?$CFd?5fr@ 00439a40     ARQ.obj
 0002:00008a68       ??_C@_0BO@LCNKKMNN@Type?5?5?5?5?5?5?5?5?5?5?5?5?5?5?5ACKS?5?5NAKS?$AA@ 00439a68     ARQ.obj
 0002:00008a88       ??_C@_0O@CPDHHBJB@?$CF?917s?5?$CF5d?5?$CF5d?$AA@ 00439a88     ARQ.obj
 0002:00008a98       ??_C@_0GB@LFHKDEMC@?$CK?$CK?$CK?$CK?$CK?$CK?$CK?$CK?$CK?$CK?$CK?$CK?$CK?$CK?$CK?$CK?$CK?$CK?$CK?$CK?$CK?$CK?$CK?$CK?$CK?$CK?$CK?$CK?$CK?$CK?$CK?$CK@ 00439a98     ARQ.obj
 0002:00008afc       ??_C@_0CE@DCFOKBDG@Root?5found?5at?5r?5?$DN?5?$CFd?0?5?$CI255?9r?$CJ?5?$DN?5@ 00439afc     berlekamp.obj
 0002:00008b20       ??_C@_0BE@PGDAFPFA@RS?5found?5?$CFd?5errors?6?$AA@ 00439b20     berlekamp.obj
 0002:00008b34       ??_C@_0CO@PMEACNNN@Error?5loc?5i?$DN?$CFd?5outside?5of?5codewo@ 00439b34     berlekamp.obj
 0002:00008b64       ??_C@_0BP@MOHGDCFA@Error?5magnitude?5?$CF?$CDx?5at?5loc?5?$CFd?6?$AA@ 00439b64     berlekamp.obj
 0002:00008b84       ??_C@_0BI@LDJGECM@Uncorrectable?5codeword?6?$AA@ 00439b84     berlekamp.obj
 0002:00008ba0       ??_C@_0FM@FNKGFNCI@?$FLARDOPprotocol?4StartFEC?$FN?5?$CFd?5byte@ 00439ba0     FEC.obj
 0002:00008bfc       ??_C@_0CK@PCLMFFJB@?$FLARDOPprotocol?4StartFEC?$FN?5No?5data@ 00439bfc     FEC.obj
 0002:00008c28       ??_C@_0DA@KOKJKGJM@?$FLGetNextFECFrame?$FN?5FECAbort?4?5Goin@ 00439c28     FEC.obj
 0002:00008c58       ??_C@_0DO@GBCFOMNC@?$FLGetNextFECFrame?$FN?5intFECFramesSe@ 00439c58     FEC.obj
 0002:00008c98       ??_C@_0EC@OHPJANKP@?$FLGetNextFECFrame?$FN?5All?5data?5and?5r@ 00439c98     FEC.obj
 0002:00008cdc       ??_C@_02LPGDPGEH@?4E?$AA@  00439cdc     FEC.obj
 0002:00008ce0       ??_C@_0GA@KLDLLKN@?$FLARDOPprotocol?4ProcessRcvdFECDat@ 00439ce0     FEC.obj
 0002:00008d40       ??_C@_03JFMEENOE@ERR?$AA@  00439d40     FEC.obj
 0002:00008d48       ??_C@_0FD@BGFFGKPD@?$FLARDOPprotocol?4ProcessRcvdFECDat@ 00439d48     FEC.obj
 0002:00008d9c       ??_C@_03MNMBHEOP@FEC?$AA@  00439d9c     FEC.obj
 0002:00008da0       ??_C@_0FH@GOBFGOBK@?$FLARDOPprotocol?4ProcessRcvdFECDat@ 00439da0     FEC.obj
 0002:00008df8       ??_C@_02BAABKJLB@?9?9?$AA@ 00439df8     getopt.obj
 0002:00008dfc       ??_C@_04PFAOODAA@?$CFs?3?5?$AA@ 00439dfc     getopt.obj
 0002:00008e04       ??_C@_0CK@LEJPCHO@option?5?$GA?$CFs?$CFs?8?5doesn?8t?5accept?5an?5@ 00439e04     getopt.obj
 0002:00008e30       ??_C@_0CE@HPHBKJFN@option?5?$GA?$CFs?$CFs?8?5requires?5an?5argume@ 00439e30     getopt.obj
 0002:00008e54       ??_C@_0CH@FFGNJLF@?$CFs?3?5option?5requires?5an?5argument?5@ 00439e54     getopt.obj
 0002:00008e7c       ??_C@_0BP@PLLPFJCB@?$CFs?3?5unrecognised?5option?5?$GA?9?$CFs?8?6?$AA@ 00439e7c     getopt.obj
 0002:00008e9c       ??_C@_0BK@JIHLPDP@?$CFs?3?5invalid?5option?5?9?9?5?$CFc?6?$AA@ 00439e9c     getopt.obj
 0002:00008eb8       ??_C@_0BO@HAHAPHIK@?$CFs?3?5option?5?$GA?$CFs?8?5is?5ambiguous?6?$AA@ 00439eb8     getopt.obj
 0002:00008ed8       ??_C@_0BO@BOEJGKHN@?$CFs?3?5unrecognised?5option?5?$GA?$CFs?8?6?$AA@ 00439ed8     getopt.obj
 0002:00008ef8       ??_C@_04HCDDPBNL@TRUE?$AA@ 00439ef8     HostInterface.obj
 0002:00008f00       ??_C@_05MAJJAKPI@FALSE?$AA@ 00439f00     HostInterface.obj
 0002:00008f08       ??_C@_05DNIIFBMG@?$CFs?5?$CFs?$AA@ 00439f08     HostInterface.obj
 0002:00008f10       ??_C@_0BC@LMEKCHED@Syntax?5Err?3?5?$CFs?5?$CFs?$AA@ 00439f10     HostInterface.obj
 0002:00008f24       ??_C@_09HGCGHFLD@?$CFs?5now?5?$CFs?$AA@ 00439f24     HostInterface.obj
 0002:00008f30       ??_C@_0BN@JINNLBGB@?$FLCommand?5Trace?5FROM?5host?3?5?$CFs?$AA@ 00439f30     HostInterface.obj
 0002:00008f50       ??_C@_05NKJCKGFJ@ABORT?$AA@ 00439f50     HostInterface.obj
 0002:00008f58       ??_C@_02ODDIIJPA@DD?$AA@   00439f58     HostInterface.obj
 0002:00008f5c       ??_C@_05DNLPOBME@ARQBW?$AA@ 00439f5c     HostInterface.obj
 0002:00008f64       ??_C@_08BALLFDBB@ARQBW?5?$CFs?$AA@ 00439f64     HostInterface.obj
 0002:00008f70       ??_C@_0N@HPJFBJLI@ARQBW?5now?5?$CFs?$AA@ 00439f70     HostInterface.obj
 0002:00008f80       ??_C@_07BFMFKIEF@ARQCALL?$AA@ 00439f80     HostInterface.obj
 0002:00008f88       ??_C@_0P@NDDKNCMI@MYCALL?5not?5Set?$AA@ 00439f88     HostInterface.obj
 0002:00008f98       ??_C@_0BC@HMEBIILF@Not?5from?5mode?5FEC?$AA@ 00439f98     HostInterface.obj
 0002:00008fac       ??_C@_0P@PLMKFMGC@Syntax?5Err?3?5?$CFs?$AA@ 00439fac     HostInterface.obj
 0002:00008fbc       ??_C@_0L@PILLEAB@ARQTIMEOUT?$AA@ 00439fbc     HostInterface.obj
 0002:00008fc8       ??_C@_05DIALNFFA@?$CFs?5?$CFd?$AA@ 00439fc8     HostInterface.obj
 0002:00008fd0       ??_C@_09HDKFPBCF@?$CFs?5now?5?$CFd?$AA@ 00439fd0     HostInterface.obj
 0002:00008fdc       ??_C@_09PILLOJHI@AUTOBREAK?$AA@ 00439fdc     HostInterface.obj
 0002:00008fe8       ??_C@_0P@DLPJCDPH@AUTOBREAK?5TRUE?$AA@ 00439fe8     HostInterface.obj
 0002:00008ff8       ??_C@_0BA@PCAIKMMJ@AUTOBREAK?5FALSE?$AA@ 00439ff8     HostInterface.obj
 0002:00009008       ??_C@_0BD@LLONCGPC@AUTOBREAK?5now?5TRUE?$AA@ 0043a008     HostInterface.obj
 0002:0000901c       ??_C@_0BE@ICOCEMED@AUTOBREAK?5now?5FALSE?$AA@ 0043a01c     HostInterface.obj
 0002:00009030       ??_C@_05IAGBLAKG@BREAK?$AA@ 0043a030     HostInterface.obj
 0002:00009038       ??_C@_06HKFEAHGA@BUFFER?$AA@ 0043a038     HostInterface.obj
 0002:00009040       ??_C@_09KOKOOPHP@BUSYBLOCK?$AA@ 0043a040     HostInterface.obj
 0002:0000904c       ??_C@_07IDGBOMOE@BUSYDET?$AA@ 0043a04c     HostInterface.obj
 0002:00009054       ??_C@_07ELEEKH@CAPTURE?$AA@ 0043a054     HostInterface.obj
 0002:0000905c       ??_C@_0P@GDFADNLG@CAPTUREDEVICES?$AA@ 0043a05c     HostInterface.obj
 0002:0000906c       ??_C@_02COKOBFHN@CL?$AA@   0043a06c     HostInterface.obj
 0002:00009070       ??_C@_05HKHBPABE@CLOSE?$AA@ 0043a070     HostInterface.obj
 0002:00009078       ??_C@_08PFIDDDAO@CMDTRACE?$AA@ 0043a078     HostInterface.obj
 0002:00009084       ??_C@_05KECBHFIB@CODEC?$AA@ 0043a084     HostInterface.obj
 0002:0000908c       ??_C@_0L@GPMBGALJ@CODEC?5TRUE?$AA@ 0043a08c     HostInterface.obj
 0002:00009098       ??_C@_0M@GDDIPIBN@CODEC?5FALSE?$AA@ 0043a098     HostInterface.obj
 0002:000090a4       ??_C@_0P@MJGDBDHD@CODEC?5now?5TRUE?$AA@ 0043a0a4     HostInterface.obj
 0002:000090b4       ??_C@_0BA@BICPHBMA@CODEC?5now?5FALSE?$AA@ 0043a0b4     HostInterface.obj
 0002:000090c4       ??_C@_0L@DGGMKNGE@CONSOLELOG?$AA@ 0043a0c4     HostInterface.obj
 0002:000090d0       ??_C@_0BB@LBDPPGOI@Not?5from?5mode?5?$CFs?$AA@ 0043a0d0     HostInterface.obj
 0002:000090e4       ??_C@_04JLAKCBCO@CWID?$AA@ 0043a0e4     HostInterface.obj
 0002:000090ec       ??_C@_0L@JIMPODBA@CWID?5ONOFF?$AA@ 0043a0ec     HostInterface.obj
 0002:000090f8       ??_C@_09LFBPHDDG@CWID?5TRUE?$AA@ 0043a0f8     HostInterface.obj
 0002:00009104       ??_C@_0L@BOOFLILP@CWID?5FALSE?$AA@ 0043a104     HostInterface.obj
 0002:00009110       ??_C@_05EGLDFBFH@ONOFF?$AA@ 0043a110     HostInterface.obj
 0002:00009118       ??_C@_0P@BDNPMAPC@CWID?5now?5ONOFF?$AA@ 0043a118     HostInterface.obj
 0002:00009128       ??_C@_0O@BLIEHLGM@CWID?5now?5TRUE?$AA@ 0043a128     HostInterface.obj
 0002:00009138       ??_C@_0P@JFPFJLFN@CWID?5now?5FALSE?$AA@ 0043a138     HostInterface.obj
 0002:00009148       ??_C@_0L@FNOENICL@DATATOSEND?$AA@ 0043a148     HostInterface.obj
 0002:00009154       ??_C@_08CJHDPGDN@DATETIME?$AA@ 0043a154     HostInterface.obj
 0002:00009160       ??_C@_0CI@CLADGEJC@DATETIME?5not?5supported?5on?5this?5p@ 0043a160     HostInterface.obj
 0002:00009188       ??_C@_08ILMNPICE@DEBUGLOG?$AA@ 0043a188     HostInterface.obj
 0002:00009194       ??_C@_0L@BMJIDLML@DISCONNECT?$AA@ 0043a194     HostInterface.obj
 0002:000091a0       ??_C@_0BE@EJIGAIDH@DISCONNECT?5NOW?5TRUE?$AA@ 0043a1a0     HostInterface.obj
 0002:000091b4       ??_C@_0BD@IALDPCHB@DISCONNECT?5IGNORED?$AA@ 0043a1b4     HostInterface.obj
 0002:000091c8       ??_C@_0L@JEDBGFLK@DRIVELEVEL?$AA@ 0043a1c8     HostInterface.obj
 0002:000091d4       ??_C@_0O@IAJJMOEO@ENABLEPINGACK?$AA@ 0043a1d4     HostInterface.obj
 0002:000091e4       ??_C@_05GFNAKLIJ@FECID?$AA@ 0043a1e4     HostInterface.obj
 0002:000091ec       ??_C@_09JPMFIACP@FASTSTART?$AA@ 0043a1ec     HostInterface.obj
 0002:000091f8       ??_C@_07HDFJIDCP@FECMODE?$AA@ 0043a1f8     HostInterface.obj
 0002:00009200       ??_C@_0L@HBCPKIJB@FECREPEATS?$AA@ 0043a200     HostInterface.obj
 0002:0000920c       ??_C@_07NHLIPODP@FECSEND?$AA@ 0043a20c     HostInterface.obj
 0002:00009214       ??_C@_0BB@LAHCNNHA@FECSEND?5now?5TRUE?$AA@ 0043a214     HostInterface.obj
 0002:00009228       ??_C@_0BC@IBFPDBLE@FECSEND?5now?5FALSE?$AA@ 0043a228     HostInterface.obj
 0002:0000923c       ??_C@_07LBBMJAFG@FSKONLY?$AA@ 0043a23c     HostInterface.obj
 0002:00009244       ??_C@_0L@ONIOHLEE@GRIDSQUARE?$AA@ 0043a244     HostInterface.obj
 0002:00009250       ??_C@_0L@JIPOENLA@INITIALIZE?$AA@ 0043a250     HostInterface.obj
 0002:0000925c       ??_C@_06DBJEGKDN@LEADER?$AA@ 0043a25c     HostInterface.obj
 0002:00009264       ??_C@_06OKBIGEGG@LISTEN?$AA@ 0043a264     HostInterface.obj
 0002:0000926c       ??_C@_08HMDDICIG@LOGLEVEL?$AA@ 0043a26c     HostInterface.obj
 0002:00009278       ??_C@_07ENJDMOMA@MONITOR?$AA@ 0043a278     HostInterface.obj
 0002:00009280       ??_C@_05PDEFOOAL@MYAUX?$AA@ 0043a280     HostInterface.obj
 0002:00009288       ??_C@_06CKFLIME@MYAUX?5?$AA@ 0043a288     HostInterface.obj
 0002:00009290       ??_C@_02DKCKIIND@?$CFs?$AA@ 0043a290     HostInterface.obj
 0002:00009294       ??_C@_03CGNBMCEI@?$CFs?0?$AA@ 0043a294     HostInterface.obj
 0002:00009298       ??_C@_02KEGNLNML@?0?5?$AA@ 0043a298     HostInterface.obj
 0002:0000929c       ??_C@_0L@IOGBILHH@MYAUX?5now?5?$AA@ 0043a29c     HostInterface.obj
 0002:000092a8       ??_C@_06HFHJAEGL@MYCALL?$AA@ 0043a2a8     HostInterface.obj
 0002:000092b0       ??_C@_0M@KEGMHPLK@NEGOTIATEBW?$AA@ 0043a2b0     HostInterface.obj
 0002:000092bc       ??_C@_04CCOOKJJG@PING?$AA@ 0043a2bc     HostInterface.obj
 0002:000092c4       ??_C@_0BG@IPFAADIP@No?5PING?5from?5state?5?$CFs?$AA@ 0043a2c4     HostInterface.obj
 0002:000092dc       ??_C@_03LPLKNEHA@PAC?$AA@  0043a2dc     HostInterface.obj
 0002:000092e0       ??_C@_04KAFEECCN@MODE?$AA@ 0043a2e0     HostInterface.obj
 0002:000092e8       ??_C@_0M@MGEMNHFM@PAC?5MODE?5?$CFs?$AA@ 0043a2e8     HostInterface.obj
 0002:000092f4       ??_C@_0BA@MEJKCKJP@PAC?5MODE?5now?5?$CFs?$AA@ 0043a2f4     HostInterface.obj
 0002:00009304       ??_C@_0BI@MCBABAGC@Syntax?5Err?3?5PAC?5MODE?5?$CFs?$AA@ 0043a304     HostInterface.obj
 0002:0000931c       ??_C@_07EPPKAOLC@RETRIES?$AA@ 0043a31c     HostInterface.obj
 0002:00009324       ??_C@_0P@GMBJPPAI@PAC?5RETRIES?5?$CFd?$AA@ 0043a324     HostInterface.obj
 0002:00009334       ??_C@_0BD@FMDEPAGA@PAC?5RETRIES?5now?5?$CFd?$AA@ 0043a334     HostInterface.obj
 0002:00009348       ??_C@_05JHBGLBIJ@FRACK?$AA@ 0043a348     HostInterface.obj
 0002:00009350       ??_C@_0N@DDANGNFK@PAC?5FRACK?5?$CFd?$AA@ 0043a350     HostInterface.obj
 0002:00009360       ??_C@_0BB@BGNNMAOH@PAC?5FRACK?5now?5?$CFd?$AA@ 0043a360     HostInterface.obj
 0002:00009374       ??_C@_08LMKBMLFB@PLAYBACK?$AA@ 0043a374     HostInterface.obj
 0002:00009380       ??_C@_0BA@LONILKAE@PLAYBACKDEVICES?$AA@ 0043a380     HostInterface.obj
 0002:00009390       ??_C@_0N@CJGHANBE@PROTOCOLMODE?$AA@ 0043a390     HostInterface.obj
 0002:000093a0       ??_C@_0BB@JBFMLAAA@PROTOCOLMODE?5ARQ?$AA@ 0043a3a0     HostInterface.obj
 0002:000093b4       ??_C@_0BB@GNBGENJP@PROTOCOLMODE?5FEC?$AA@ 0043a3b4     HostInterface.obj
 0002:000093c8       ??_C@_0BF@ECLOJLEO@PROTOCOLMODE?5now?5ARQ?$AA@ 0043a3c8     HostInterface.obj
 0002:000093e0       ??_C@_0BF@LOPEGGNB@PROTOCOLMODE?5now?5FEC?$AA@ 0043a3e0     HostInterface.obj
 0002:000093f8       ??_C@_0M@MPBAMBCJ@PURGEBUFFER?$AA@ 0043a3f8     HostInterface.obj
 0002:00009404       ??_C@_08LIEGGNCB@RADIOHEX?$AA@ 0043a404     HostInterface.obj
 0002:00009410       ??_C@_0CA@EBOHMKMJ@RADIOHEX?5command?5string?5missing?$AA@ 0043a410     HostInterface.obj
 0002:00009430       ??_C@_0M@DOGLGCCM@RADIOPTTOFF?$AA@ 0043a430     HostInterface.obj
 0002:0000943c       ??_C@_0CD@NGCAKMJK@RADIOPTTOFF?5command?5string?5missi@ 0043a43c     HostInterface.obj
 0002:00009460       ??_C@_0CJ@HANBLLEC@RADIOPTTOFF?5command?5CAT?5Port?5not@ 0043a460     HostInterface.obj
 0002:0000948c       ??_C@_0BM@IHGBLENA@CAT?5PTT?5Off?5Command?5Defined?$AA@ 0043a48c     HostInterface.obj
 0002:000094a8       ??_C@_0L@FCHDJJEK@RADIOPTTON?$AA@ 0043a4a8     HostInterface.obj
 0002:000094b4       ??_C@_0CC@IKBBCMOO@RADIOPTTON?5command?5string?5missin@ 0043a4b4     HostInterface.obj
 0002:000094d8       ??_C@_0CI@HMLFAMBH@RADIOPTTON?5command?5CAT?5Port?5not?5@ 0043a4d8     HostInterface.obj
 0002:00009500       ??_C@_0BL@EBKEFFAI@CAT?5PTT?5On?5Command?5Defined?$AA@ 0043a500     HostInterface.obj
 0002:0000951c       ??_C@_07LBJGHBIP@RXLEVEL?$AA@ 0043a51c     HostInterface.obj
 0002:00009524       ??_C@_0CP@GGKPCLGL@RXLEVEL?5command?5not?5available?5on@ 0043a524     HostInterface.obj
 0002:00009554       ??_C@_06DHNAFNHI@SENDID?$AA@ 0043a554     HostInterface.obj
 0002:0000955c       ??_C@_0BC@DIBOMCCE@Not?5from?5State?5?$CFs?$AA@ 0043a55c     HostInterface.obj
 0002:00009570       ??_C@_07JDDIGJNM@SQUELCH?$AA@ 0043a570     HostInterface.obj
 0002:00009578       ??_C@_05MMKHEPHK@STATE?$AA@ 0043a578     HostInterface.obj
 0002:00009580       ??_C@_07EBACFBLN@TRAILER?$AA@ 0043a580     HostInterface.obj
 0002:00009588       ??_C@_0M@MALFFABE@TWOTONETEST?$AA@ 0043a588     HostInterface.obj
 0002:00009594       ??_C@_0BC@LKOPEAIH@Not?5from?5state?5?$CFs?$AA@ 0043a594     HostInterface.obj
 0002:000095a8       ??_C@_0M@FKICOHOM@TUNINGRANGE?$AA@ 0043a5a8     HostInterface.obj
 0002:000095b4       ??_C@_07HHPJHIAI@TXLEVEL?$AA@ 0043a5b4     HostInterface.obj
 0002:000095bc       ??_C@_0CP@MKMIBGHE@TXLEVEL?5command?5not?5available?5on@ 0043a5bc     HostInterface.obj
 0002:000095ec       ??_C@_0M@FDGMHEMG@USE600MODES?$AA@ 0043a5ec     HostInterface.obj
 0002:000095f8       ??_C@_07NCHCCDCP@VERSION?$AA@ 0043a5f8     HostInterface.obj
 0002:00009600       ??_C@_0O@LAPEONLC@VERSION?5?$CFs_?$CFs?$AA@ 0043a600     HostInterface.obj
 0002:00009610       ??_C@_0BH@BJLAPCHC@CMD?5?$CFs?5not?5recoginized?$AA@ 0043a610     HostInterface.obj
 0002:00009628       ??_C@_08PALDHKD@FAULT?5?$CFs?$AA@ 0043a628     HostInterface.obj
 0002:00009634       ??_C@_0CM@GIECKIAC@?$FLAddTagToDataAndSendToHost?$FN?5byte@ 0043a634     HostInterface.obj
 0002:00009660       ??_C@_0BN@DIJBCD@KISS?5interface?5Using?5port?5?$CFs?$AA@ 0043a660     KISSModule.obj
 0002:00009680       ??_C@_0BI@GODJGOBA@Queuing?5?$CFd?5Packet?5Bytes?$AA@ 0043a680     KISSModule.obj
 0002:00009698       ??_C@_0BG@KAOACCEH@Sending?5Frame?5Type?5?$CFs?$AA@ 0043a698     Modulate.obj
 0002:000096b0       ??_C@_0P@IPJAJEMC@Soft?5Clips?5?$CFd?5?$AA@ 0043a6b0     Modulate.obj
 0002:000096c0       ??_C@_0BI@OBBBCAKE@Invalid?5Filter?5Width?5?$CFd?$AA@ 0043a6c0     Modulate.obj
 0002:000096d8       ??_C@_0CH@NJFPKNKK@ABCDEFGHIJKLMNOPQRSTUVWXYZ012345@ 0043a6d8     Modulate.obj
 0002:00009700       ??_C@_0CH@NPIFNDA@Got?5SREJ?0?5resending?5Frame?5Retrie@ 0043a700     pktSession.obj
 0002:00009728       ??_C@_0BK@EAFMCNHB@L2?5process?5saved?5Frame?5?$CFd?$AA@ 0043a728     pktSession.obj
 0002:00009744       ??_C@_0DE@JFHMMCPE@Frame?5?$CFd?5out?5of?5seq?5but?5already?5@ 0043a744     pktSession.obj
 0002:00009778       ??_C@_0BL@PGPHOBMO@Frame?5?$CFd?5out?5of?5seq?5?9?5save?$AA@ 0043a778     pktSession.obj
 0002:00009794       ??_C@_08BJFAAHIA@PKTCALL?5?$AA@ 0043a794     pktSession.obj
 0002:000097a0       ??_C@_0BE@PMHBOFHE@Bad?5PKTCall?5Command?$AA@ 0043a7a0     pktSession.obj
 0002:000097b4       ??_C@_0BB@COHBOIFN@Invalid?5Callsign?$AA@ 0043a7b4     pktSession.obj
 0002:000097c8       ??_C@_0CN@PNAAGJDP@There?5is?5already?5a?5session?5betwe@ 0043a7c8     pktSession.obj
 0002:000097f8       ??_C@_0CE@BBHHICOD@Not?5enough?5memory?5to?5set?5up?5ssss@ 0043a7f8     pktSession.obj
 0002:0000981c       ??_C@_0BA@JHNIBFNG@Failure?5with?5?$CFs?$AA@ 0043a81c     pktSession.obj
 0002:0000982c       ??_C@_0N@BBALBEDH@Busy?5from?5?$CFs?$AA@ 0043a82c     pktSession.obj
 0002:0000983c       ??_C@_0BA@KLONEPCF@Connected?5to?5?$CFs?$AA@ 0043a83c     pktSession.obj
 0002:0000984c       ??_C@_0BF@NCMHIINK@Disconnected?5from?5?$CFs?$AA@ 0043a84c     pktSession.obj
 0002:00009864       ??_C@_0BM@MLGIILJM@Incoming?5Call?5from?5?$CFs?5to?5?$CFs?$AA@ 0043a864     pktSession.obj
 0002:00009880       ??_C@_09HNGCGHME@Queued?5?$CFd?$AA@ 0043a880     pktSession.obj
 0002:0000988c       ??_C@_0BO@KLEDMJOH@XX?5NOT?5LINK?5FAILURE?5with?5?$CFs?5?$AN?$AA@ 0043a88c     pktSession.obj
 0002:000098ac       ??_C@_0L@KOMDFBEI@BUSY?5fm?5?$CFs?$AA@ 0043a8ac     pktSession.obj
 0002:000098b8       ??_C@_0BE@OILIHLBO@XX?5CONNECTED?5to?5?$CFs?5?$AA@ 0043a8b8     pktSession.obj
 0002:000098cc       ??_C@_0BJ@FDMAFGON@XX?5DISCONNECTED?5from?5?$CFs?5?$AA@ 0043a8cc     pktSession.obj
 0002:000098e8       ??_C@_0P@IMDIKBJB@ReportFlags?5?$CFd?$AA@ 0043a8e8     pktSession.obj
 0002:000098f8       ??_C@_09OJJAOOBI@Exit?5Host?$AA@ 0043a8f8     pktSession.obj
 0002:00009904       ??_C@_0BD@GHNAHCED@?$CFd?5?$CFd?5?$CFd?5?$CFd?5?$CFd?5?$CFd?$AN?$AA@ 0043a904     pktSession.obj
 0002:00009918       ??_C@_0N@GAKKEJOD@0?50?50?50?50?50?$AN?$AA@ 0043a918     pktSession.obj
 0002:00009928       ??_C@_0BD@NHOPODKJ@Disconnect?5Command?$AA@ 0043a928     pktSession.obj
 0002:0000993c       ??_C@_09OFOIGNLA@V?5Command?$AA@ 0043a93c     pktSession.obj
 0002:00009948       ??_C@_0DF@NHCMDCIM@DSPTNC?5Firmware?5V?41?43a?0?5?$CIC?$CJ?52005@ 0043a948     pktSession.obj
 0002:00009980       ??_C@_0BE@OPCBBEIK@DED?5Connect?5Request?$AA@ 0043a980     pktSession.obj
 0002:00009994       ??_C@_0BK@BBCMKBOO@CHANNEL?5ALREADY?5CONNECTED?$AA@ 0043a994     pktSession.obj
 0002:000099b0       ??_C@_0BB@KMGBHGDI@INVALID?5CALLSIGN?$AA@ 0043a9b0     pktSession.obj
 0002:000099c4       ??_C@_0BK@LGKDFCPA@STATION?5ALREADY?5CONNECTED?$AA@ 0043a9c4     pktSession.obj
 0002:000099e0       ??_C@_09HJEHEJCM@NO?5MEMORY?$AA@ 0043a9e0     pktSession.obj
 0002:000099ec       ??_C@_0P@OCNJEDHC@DED?5Command?5?$CFc?$AA@ 0043a9ec     pktSession.obj
 0002:000099fc       ??_C@_0DL@EGOLDDCH@?$CK?$CK?$CK?$CK?$CK?$CK?5Packet?5Session?5stats?5?$CFs?5a@ 0043a9fc     pktSession.obj
 0002:00009a38       ??_C@_0CG@HKIKBPMK@Packets?5Received?5?$CFd?5Bytes?5Receiv@ 0043aa38     pktSession.obj
 0002:00009a60       ??_C@_0BO@OHEAHCDA@Packets?5Sent?5?$CFd?5Bytes?5Sent?5?$CFd?$AA@ 0043aa60     pktSession.obj
 0002:00009a80       ??_C@_0M@KEFMKGLA@Timeouts?5?$CFd?$AA@ 0043aa80     pktSession.obj
 0002:00009a8c       ??_C@_0CE@GGHENPAN@Packets?5received?5out?5of?5Sequence@ 0043aa8c     pktSession.obj
 0002:00009ab0       ??_C@_0BE@BNFLCJMD@SREJ?5Frames?5Sent?5?$CFd?$AA@ 0043aab0     pktSession.obj
 0002:00009ac4       ??_C@_0DL@GHALBBLD@?$CK?$CK?$CK?$CK?$CK?$CK?$CK?$CK?$CK?$CK?$CK?$CK?$CK?$CK?$CK?$CK?$CK?$CK?$CK?$CK?$CK?$CK?$CK?$CK?$CK?$CK?$CK?$CK?$CK?$CK?$CK?$CK@ 0043aac4     pktSession.obj
 0002:00009b00       ??_C@_01EEMJAFIK@?6?$AA@   0043ab00     rs.obj
 0002:00009b04       ??_C@_0BD@JBJHAFGC@Command?5to?5Host?5?$CFs?$AA@ 0043ab04     SCSHostInterface.obj
 0002:00009b18       ??_C@_07JINEOCAO@STATUS?5?$AA@ 0043ab18     SCSHostInterface.obj
 0002:00009b20       ??_C@_0L@HACOFEBF@CONNECT?5TO?$AA@ 0043ab20     SCSHostInterface.obj
 0002:00009b2c       ??_C@_0O@LJMNHICC@Disconnected?$AN?$AA@ 0043ab2c     SCSHostInterface.obj
 0002:00009b3c       ??_C@_0L@ICJFIHDM@CONNECTED?5?$AA@ 0043ab3c     SCSHostInterface.obj
 0002:00009b48       ??_C@_01LIIJDEN@?$AN?$AA@  0043ab48     SCSHostInterface.obj
 0002:00009b4c       ??_C@_06BJKOMAPB@DISCON?$AA@ 0043ab4c     SCSHostInterface.obj
 0002:00009b54       ??_C@_0BC@LACPMDGF@STATUS?5CONNECT?5TO?$AA@ 0043ab54     SCSHostInterface.obj
 0002:00009b68       ??_C@_0BF@NALENCAB@?$CI?$CFd?$CJ?5CONNECTED?5to?5?$CFs?$AA@ 0043ab68     SCSHostInterface.obj
 0002:00009b80       ??_C@_0BI@OPPPPCHH@?$CI?$CFd?$CJ?5DISCONNECTED?5fm?5?$CFs?$AA@ 0043ab80     SCSHostInterface.obj
 0002:00009b98       ??_C@_0CE@FJBABCEA@Same?5Toggle?5?9?5Repeating?5last?5pac@ 0043ab98     SCSHostInterface.obj
 0002:00009bbc       ??_C@_0BF@MMOFLHPH@Sending?5CMD?5Reply?5?$CFs?$AA@ 0043abbc     SCSHostInterface.obj
 0002:00009bd4       ??_C@_0P@IHEBJIJI@Exit?5Host?5Mode?$AA@ 0043abd4     SCSHostInterface.obj
 0002:00009be4       ??_C@_0BC@HDIJPDCG@?$CFd?5?$CFd?5?$CFd?5?$CFd?5?$CFd?5?$CFd?$AA@ 0043abe4     SCSHostInterface.obj
 0002:00009bf8       ??_C@_0BE@OLOODFCJ@SCS?5Host?5Command?5?$CFs?$AA@ 0043abf8     SCSHostInterface.obj
 0002:00009c0c       ??_C@_08NAGKCGL@4?48?51?432?$AA@ 0043ac0c     SCSHostInterface.obj
 0002:00009c18       ??_C@_03JDANDILB@?$CFd?5?$AA@ 0043ac18     SCSHostInterface.obj
 0002:00009c1c       ??_C@_0BC@OICPMNKH@Exit?5KISS?5Command?$AA@ 0043ac1c     SCSHostInterface.obj
 0002:00009c30       ??_C@_0P@EGMOCKEC@SCS?5Command?5?$CFs?$AA@ 0043ac30     SCSHostInterface.obj
 0002:00009c40       ??_C@_03LBIAKKDM@CB?5?$AA@ 0043ac40     SCSHostInterface.obj
 0002:00009c44       ??_C@_06LCGHJIPI@JHOST4?$AA@ 0043ac44     SCSHostInterface.obj
 0002:00009c4c       ??_C@_0BD@PJLEBKPD@Entering?5Host?5Mode?$AA@ 0043ac4c     SCSHostInterface.obj
 0002:00009c60       ??_C@_06MPBAGMLN@JHOST1?$AA@ 0043ac60     SCSHostInterface.obj
 0002:00009c68       ??_C@_0BH@CDLCDJFP@Entering?5DED?5Host?5Mode?$AA@ 0043ac68     SCSHostInterface.obj
 0002:00009c80       ??_C@_07EOCDMAHH@RESTART?$AA@ 0043ac80     SCSHostInterface.obj
 0002:00009c88       ??_C@_04MGLLHAAE@?$AN?6OK?$AA@ 0043ac88     SCSHostInterface.obj
 0002:00009c90       ??_C@_0BD@GKKENHJE@PTC?5Emulation?5Mode?$AA@ 0043ac90     SCSHostInterface.obj
 0002:00009ca4       ??_C@_05BNOBEDPN@ARDOP?$AA@ 0043aca4     SCSHostInterface.obj
 0002:00009cac       ??_C@_0BC@MEFMFOFD@ARDOP?5Native?5Mode?$AA@ 0043acac     SCSHostInterface.obj
 0002:00009cc0       ??_C@_06ECFGNPKG@TERM?54?$AA@ 0043acc0     SCSHostInterface.obj
 0002:00009cc8       ??_C@_03HNNPMIAF@T?50?$AA@ 0043acc8     SCSHostInterface.obj
 0002:00009ccc       ??_C@_04GBOBDPBG@QUIT?$AA@ 0043accc     SCSHostInterface.obj
 0002:00009cd4       ??_C@_03PPMKJPK@MYC?$AA@   0043acd4     SCSHostInterface.obj
 0002:00009cd8       ??_C@_0O@LHPKONNH@?$ANMycall?3?5?$DO?$CFs?$DM?$AA@ 0043acd8     SCSHostInterface.obj
 0002:00009ce8       ??_C@_08NPGKANFC@SYS?5SERN?$AA@ 0043ace8     SCSHostInterface.obj
 0002:00009cf4       ??_C@_0CC@GMPMHBNC@?$AN?6Serial?5number?3?5010000000000000@ 0043acf4     SCSHostInterface.obj
 0002:00009d18       ??_C@_07LEJMGMMC@LICENSE?$AA@ 0043ad18     SCSHostInterface.obj
 0002:00009d20       ??_C@_0CJ@LLJHPPIH@?$AN?6LICENSE?3?5010000141714CB53?5ABCD@ 0043ad20     SCSHostInterface.obj
 0002:00009d4c       ??_C@_04ENNLHLAA@PSKA?$AA@ 0043ad4c     SCSHostInterface.obj
 0002:00009d54       ??_C@_05NBKMEPJG@TXL?5A?$AA@ 0043ad54     SCSHostInterface.obj
 0002:00009d5c       ??_C@_0L@BHIJPLHF@?$AN?6PSKA?3?5?$CFd?$AA@ 0043ad5c     SCSHostInterface.obj
 0002:00009d68       ??_C@_04KCHLBJCC@FSKA?$AA@ 0043ad68     SCSHostInterface.obj
 0002:00009d70       ??_C@_0L@MIFDMAIO@?$AN?6FSKA?3?5?$CFd?$AA@ 0043ad70     SCSHostInterface.obj
 0002:00009d7c       ??_C@_04OMCJHAID@PTCC?$AA@ 0043ad7c     SCSHostInterface.obj
 0002:00009d84       ??_C@_0BP@CKPGFAOD@?$AN?6PTC?9II?5COMPATIBILITY?5MODE?3?50?$AA@ 0043ad84     SCSHostInterface.obj
 0002:00009da4       ??_C@_03IIGELFDF@MYL?$AA@  0043ada4     SCSHostInterface.obj
 0002:00009da8       ??_C@_05OELEEGJB@?$ANXXXX?$AA@ 0043ada8     SCSHostInterface.obj
 0002:00009db0       ??_C@_09NILDIMNB@BAUD?51200?$AA@ 0043adb0     SCSHostInterface.obj
 0002:00009dbc       ??_C@_09GHKBFAEH@BAUD?59600?$AA@ 0043adbc     SCSHostInterface.obj
 0002:00009dc8       ??_C@_04ENDNPAOI@MAX?5?$AA@ 0043adc8     SCSHostInterface.obj
 0002:00009dd0       ??_C@_04MHGMLOB@PACL?$AA@  0043add0     SCSHostInterface.obj
 0002:00009dd8       ??_C@_0BH@HIICFMDJ@cancelling?5input?5?$CFd?5?$CFd?$AA@ 0043add8     SCSHostInterface.obj
 0002:00009df0       ??_C@_0CD@PGAAEBOM@ProcessSCSPacket?5Bad?5Unstuff?5Fra@ 0043adf0     SCSHostInterface.obj
 0002:00009e14       ??_C@_07CNJIKIIB@?$CDTRX?5T?5?$AA@ 0043ae14     SCSHostInterface.obj
 0002:00009e1c       ??_C@_02EFIMBOMN@?4O?$AA@  0043ae1c     SoundInput.obj
 0002:00009e20       ??_C@_0CG@FPICEEGC@Corrupt?5intFilteredMixedSamplesL@ 0043ae20     SoundInput.obj
 0002:00009e48       ??_C@_0CJ@EDNFPCIK@Corrupt?5intFilteredMixedSamplesL@ 0043ae48     SoundInput.obj
 0002:00009e74       ??_C@_0DJ@GABJOCPM@?$FLCorrectRawDataWithRS?$FN?5Carrier?5?$CF@ 0043ae74     SoundInput.obj
 0002:00009eb0       ??_C@_0CP@JNPCJNFD@?$FLCorrectRawDataWithRS?$FN?5OK?5withou@ 0043aeb0     SoundInput.obj
 0002:00009ee0       ??_C@_0CN@PLLJCNFD@?$FLCorrectRawDataWithRS?$FN?5RS?5Says?5C@ 0043aee0     SoundInput.obj
 0002:00009f10       ??_C@_0DL@JHHFFMLC@?$FLCorrectRawDataWithRS?$FN?5OK?5with?5R@ 0043af10     SoundInput.obj
 0002:00009f4c       ??_C@_0DE@GNAPAMKO@?$FLCorrectRawDataWithRS?$FN?5RS?5says?5o@ 0043af4c     SoundInput.obj
 0002:00009f80       ??_C@_0P@LGGLDKPJ@Got?5Frame?5Sync?$AA@ 0043af80     SoundInput.obj
 0002:00009f90       ??_C@_0BD@MKHACAGP@frame?5sync?5timeout?$AA@ 0043af90     SoundInput.obj
 0002:00009fa4       ??_C@_0BH@KEHAODIE@poor?5frame?5type?5decode?$AA@ 0043afa4     SoundInput.obj
 0002:00009fbc       ??_C@_0P@MHCKBMIJ@bad?5frame?5type?$AA@ 0043afbc     SoundInput.obj
 0002:00009fd0       ??_C@_0IL@FILFNEGA@?$FLARDOPprotocol?4ProcessNewSamples@ 0043afd0     SoundInput.obj
 0002:0000a060       ??_C@_0FI@LAFGIKHG@?$FLARDOPprotocol?4ProcessNewSamples@ 0043b060     SoundInput.obj
 0002:0000a0b8       ??_C@_0BJ@JADBCDC@?$FLDecodeFrame?$FN?5Frame?3?5?$CFs?5?$AA@ 0043b0b8     SoundInput.obj
 0002:0000a0d4       ??_C@_0CE@PACHHMPP@New?5frame?5type?5?9?5MEMARQ?5flags?5re@ 0043b0d4     SoundInput.obj
 0002:0000a0f8       ??_C@_0BA@EONCGHJP@MEMARQ?5Flags?5?$CFd?$AA@ 0043b0f8     SoundInput.obj
 0002:0000a108       ??_C@_0BD@CLALDEIN@MEMARQ?5Flags?5?$CFd?5?$CFd?$AA@ 0043b108     SoundInput.obj
 0002:0000a11c       ??_C@_0CL@KCJPFNPJ@MEMARQ?5Flags?5?$CFd?5?$CFd?5?$CFd?5?$CFd?5?$CFd?5?$CFd?5?$CF@ 0043b11c     SoundInput.obj
 0002:0000a148       ??_C@_05GMHCMGLE@16FSK?$AA@ 0043b148     SoundInput.obj
 0002:0000a150       ??_C@_04GLIEPKGD@8FSK?$AA@ 0043b150     SoundInput.obj
 0002:0000a158       ??_C@_09GBPIIGEG@Qual?5?$DN?5?$CFd?$AA@ 0043b158     SoundInput.obj
 0002:0000a168       ??_C@_0FL@HDOBMIFN@?$FLARDOPprotocol?4ProcessNewSamples@ 0043b168     SoundInput.obj
 0002:0000a1c8       ??_C@_0HE@GMFGFFGG@?$FLARDOPprotocol?4ProcessNewSamples@ 0043b1c8     SoundInput.obj
 0002:0000a240       ??_C@_0GD@LEDMPOGN@?$FLARDOPprotocol?4ProcessNewSamples@ 0043b240     SoundInput.obj
 0002:0000a2a4       ??_C@_03GIMBCJGG@PSK?$AA@  0043b2a4     SoundInput.obj
 0002:0000a2a8       ??_C@_03JJIFJOJL@QAM?$AA@  0043b2a8     SoundInput.obj
 0002:0000a2b0       ??_C@_0GJ@IMKPEPME@?$FLARDOPprotocol?4ProcessNewSamples@ 0043b2b0     SoundInput.obj
 0002:0000a31c       ??_C@_0BL@EBKFJBEL@Received?5Data?0?5No?5State?5?$CFs?$AA@ 0043b31c     SoundInput.obj
 0002:0000a338       ??_C@_08FILCMBDN@Blackman?$AA@ 0043b338     SoundInput.obj
 0002:0000a344       ??_C@_04GLPDCLAP@Hann?$AA@ 0043b344     SoundInput.obj
 0002:0000a34c       ??_C@_07LGHHLCCE@Hamming?$AA@ 0043b34c     SoundInput.obj
 0002:0000a354       ??_C@_0CK@PPEBEKMA@Ldr?$DL?5S?3N?$CI3KHz?$CJ?5Avg?$DN?5?$CFf?5dB?0?5Offse@ 0043b354     SoundInput.obj
 0002:0000a380       ??_C@_0DF@FIAELFIB@?$FLAcquire2ToneLeaderSymbolFraming@ 0043b380     SoundInput.obj
 0002:0000a3b8       ??_C@_0CN@KELJKAOD@EnvelopeCorrelator?5CorMax?3MaxPro@ 0043b3b8     SoundInput.obj
 0002:0000a3e8       ??_C@_0BK@HIBBNKDN@EnvelopeCorrelator?5failed?$AA@ 0043b3e8     SoundInput.obj
 0002:0000a408       ??_C@_0FD@PPBBPJNO@Frame?5Decode?5type?5?$CFx?5?$CFx?5?$CFx?5Dist?5@ 0043b408     SoundInput.obj
 0002:0000a45c       ??_C@_0DA@LHIMNEHK@?$FLFrame?5Type?5OK?$FN1?5?5?$CFs?0?5D1?$DN?5?$CFd?5?0?5P@ 0043b45c     SoundInput.obj
 0002:0000a48c       ??_C@_0DO@MMLFMNIH@?$CFs?5MD?5Decode?$DL1?5ID?$DNH?$CFX?0?5Type?$DNDISC@ 0043b48c     SoundInput.obj
 0002:0000a4cc       ??_C@_0BM@ILHFPDON@?$FLFrame?5Type?5Decode?5OK?5?5?$FN?5?$CFs?$AA@ 0043b4cc     SoundInput.obj
 0002:0000a4e8       ??_C@_0DH@KBGFLCDA@?$CFs?5MD?5Decode?$DL2?5ID?$DNH?$CFX?0?5Type?$DNH?$CFX?3@ 0043b4e8     SoundInput.obj
 0002:0000a520       ??_C@_0DH@FMDGNO@?$CFs?5MD?5Decode?$DL3?5ID?$DNH?$CFX?0?5Type?$DNH?$CFX?3@ 0043b520     SoundInput.obj
 0002:0000a558       ??_C@_0DH@NBBCKENG@?$CFs?5MD?5Decode?$DL4?5ID?$DNH?$CFX?0?5Type?$DNH?$CFX?3@ 0043b558     SoundInput.obj
 0002:0000a590       ??_C@_0DB@BKFJCHP@?$FLFrame?5Type?5OK?$FN1A?5?5?$CFs?0?5D1?$DN?5?$CFd?5?0?5@ 0043b590     SoundInput.obj
 0002:0000a5c4       ??_C@_0DH@EIBAKLEL@?$CFs?5MD?5Decode?$DL6?5ID?$DNH?$CFX?0?5Type?$DNH?$CFX?3@ 0043b5c4     SoundInput.obj
 0002:0000a5fc       ??_C@_0CP@GPFIOBOP@?$CFs?5Parity?5Check?5Fail?0?5Values?5are@ 0043b5fc     SoundInput.obj
 0002:0000a62c       ??_C@_0DH@OJCJCPKF@?$CFs?5MD?5Decode?$DL7?5ID?$DNH?$CFX?0?5Type?$DNH?$CFX?3@ 0043b62c     SoundInput.obj
 0002:0000a664       ??_C@_0DH@DBPMIJBK@?$CFs?5MD?5Decode?$DL8?5ID?$DNH?$CFX?0?5Type?$DNH?$CFX?3@ 0043b664     SoundInput.obj
 0002:0000a69c       ??_C@_0DI@BNEJFIPH@?$CFs?5MD?5Decode?$DL9?5ID?$DNH?$CFX?0?5Type?$DNH?$CFX?3@ 0043b69c     SoundInput.obj
 0002:0000a6d4       ??_C@_0DI@CDLHENPH@?$CFs?5MD?5Decode?$DL10?5ID?$DNH?$CFX?0?5Type?$DNH?$CFX@ 0043b6d4     SoundInput.obj
 0002:0000a70c       ??_C@_0DI@ICIOMJBJ@?$CFs?5MD?5Decode?$DL11?5ID?$DNH?$CFX?0?5Type?$DNH?$CFX@ 0043b70c     SoundInput.obj
 0002:0000a744       ??_C@_0DM@EMHDFNNN@?$CFs?5MD?5Decode?$DL12?5?5Type1?$DNH?$CFX?3?5Type@ 0043b744     SoundInput.obj
 0002:0000a780       ??_C@_0BM@OGGJMBJF@?$FLFrame?5Type?5Decode?5Fail?$FN?5?$CFs?$AA@ 0043b780     SoundInput.obj
 0002:0000a79c       ??_C@_07GCMJHCKE@PENDING?$AA@ 0043b79c     SoundInput.obj
 0002:0000a7a4       ??_C@_0BN@LALLABBI@CONREQ?5Frame?5Corrected?5by?5RS?$AA@ 0043b7a4     SoundInput.obj
 0002:0000a7c4       ??_C@_0BK@OCIJKDPN@CONREQ?5Still?5bad?5after?5RS?$AA@ 0043b7c4     SoundInput.obj
 0002:0000a7e0       ??_C@_06DEBFLLAO@_?5?$DO?5?$CFs?$AA@ 0043b7e0     SoundInput.obj
 0002:0000a7e8       ??_C@_0CE@PAFHCEAL@DemodDecode4FSKConReq?3?5?5S?3N?$DN?$CFd?5Q@ 0043b7e8     SoundInput.obj
 0002:0000a80c       ??_C@_0BL@ONMGCMGA@PING?5Frame?5Corrected?5by?5RS?$AA@ 0043b80c     SoundInput.obj
 0002:0000a828       ??_C@_0BI@NGMINIDM@PING?5Still?5bad?5after?5RS?$AA@ 0043b828     SoundInput.obj
 0002:0000a840       ??_C@_08FLBAMBKD@_?$CFs?5?$DO?5?$CFs?$AA@ 0043b840     SoundInput.obj
 0002:0000a84c       ??_C@_0BB@CPBKPNCP@PING?5?$CFs?$DO?$CFs?5?$CFd?5?$CFd?$AA@ 0043b84c     SoundInput.obj
 0002:0000a860       ??_C@_0CN@FMKCMMHF@?$FLDemodDecode4FSKPing?$FN?5PING?5?$CFs?$DO?$CFs@ 0043b860     SoundInput.obj
 0002:0000a890       ??_C@_0DA@IDODJFCK@?$FLDemodDecode4FSKPingACK?$FN?5?5S?3N?$DO?52@ 0043b890     SoundInput.obj
 0002:0000a8c0       ??_C@_0DA@LBOHCFG@?$FLDemodDecode4FSKPingACK?$FN?5?5S?3N?$DN?5?$CF@ 0043b8c0     SoundInput.obj
 0002:0000a8f0       ??_C@_0BJ@CAEMJJE@ID?5Frame?5Corrected?5by?5RS?$AA@ 0043b8f0     SoundInput.obj
 0002:0000a90c       ??_C@_0BG@EFACKBF@ID?5Still?5bad?5after?5RS?$AA@ 0043b90c     SoundInput.obj
 0002:0000a924       ??_C@_04LIFAFMCE@?$FL?$CFs?$FN?$AA@ 0043b924     SoundInput.obj
 0002:0000a92c       ??_C@_0BK@CAIPFAIB@Unsupported?5frame?5type?5?$CFx?$AA@ 0043b92c     SoundInput.obj
 0002:0000a948       ??_C@_0O@JMKNMKIB@PINGACK?5?$CFd?5?$CFd?$AA@ 0043b948     SoundInput.obj
 0002:0000a958       ??_C@_09NMKJLHHB@ID?3?$CFs?5?$CFs?3?$AA@ 0043b958     SoundInput.obj
 0002:0000a964       ??_C@_08NLGNBBMN@CQ?5?$CFs?5?$CFs?$AA@ 0043b964     SoundInput.obj
 0002:0000a970       ??_C@_0CA@JIADLGOL@Pkt?5Frame?5Header?5Type?5?$CFs?5Len?5?$CFd?$AA@ 0043b970     SoundInput.obj
 0002:0000a990       ??_C@_0BI@FPBJMGOP@Unrecognised?5frame?5type?$AA@ 0043b990     SoundInput.obj
 0002:0000a9a8       ??_C@_0EB@IDPOMMIG@?$FLDecodeFrame?$FN?5Frame?3?5?$CFs?5Decode?5P@ 0043b9a8     SoundInput.obj
 0002:0000a9f0       ??_C@_0EB@KDLDFJG@?$FLDecodeFrame?$FN?5Frame?3?5?$CFs?5Decode?5F@ 0043b9f0     SoundInput.obj
 0002:0000aa34       ??_C@_0BM@OAKNOMKB@DemodPSK?5Carriers?5?$CFd?5and?5?$CFd?$AA@ 0043ba34     SoundInput.obj
 0002:0000aa50       ??_C@_0CD@CLGCEFLP@DemodPSK?5Carrier?5?$CFd?5bad?0?5trying?5@ 0043ba50     SoundInput.obj
 0002:0000aa74       ??_C@_0CC@LEFHLIDP@DemodPSK?5both?5bad?0?5trying?5averag@ 0043ba74     SoundInput.obj
 0002:0000aa98       ??_C@_0CO@GDDOKDNB@DemodPSK?5retry?5RS?5on?5MEM?5ARQ?5Cor@ 0043ba98     SoundInput.obj
 0002:0000aac8       ??_C@_0BN@NDGEFMLG@DemodQAMR?5Carriers?5?$CFd?5and?5?$CFd?$AA@ 0043bac8     SoundInput.obj
 0002:0000aae8       ??_C@_0BL@GNGKFGBG@DemodQAMR?5Returning?5Len?5?$CFd?$AA@ 0043bae8     SoundInput.obj
 0002:0000ab04       ??_C@_0CE@JFEKCJGP@DemodQAMR?5Carrier?5?$CFd?5bad?0?5trying@ 0043bb04     SoundInput.obj
 0002:0000ab28       ??_C@_0CD@JHCLHIEN@DemodQAMR?5both?5bad?0?5trying?5avera@ 0043bb28     SoundInput.obj
 0002:0000ab4c       ??_C@_0BI@PIBAFLCC@DemodQAM?5Trying?5MEM?5ARQ?$AA@ 0043bb4c     SoundInput.obj
 0002:0000ab64       ??_C@_0CB@JBCOPHNG@DemodQAM?5MEM?5ARQ?5Corrected?5frame@ 0043bb64     SoundInput.obj
 0002:0000ab88       ??_C@_0M@PCENNPGA@?$CFd?4?$CFd?4?$CFd?4?$CFd?$AA@ 0043bb88     TCPHostInterface.obj
 0002:0000ab94       ??_C@_03KKEONHKL@?$CFs?$AN?$AA@ 0043bb94     TCPHostInterface.obj
 0002:0000ab98       ??_C@_0BK@ILLILHJC@?5Command?5Trace?5TO?5Host?5?$CFs?$AA@ 0043bb98     TCPHostInterface.obj
 0002:0000abb4       ??_C@_03KDFFCEML@RDY?$AA@  0043bbb4     TCPHostInterface.obj
 0002:0000abb8       ??_C@_0BJ@GNIFIGAA@socket?$CI?$CJ?5failed?5error?5?$CFd?$AA@ 0043bbb8     TCPHostInterface.obj
 0002:0000abd4       ??_C@_0CD@JDLGCIB@bind?$CIsock?$CJ?5failed?5port?5?$CFd?5Error?5@ 0043bbd4     TCPHostInterface.obj
 0002:0000abf8       ??_C@_0CF@MOMCIHNO@listen?$CIsock?$CJ?5failed?5port?5?$CFd?5Erro@ 0043bbf8     TCPHostInterface.obj
 0002:0000ac20       ??_C@_0BM@LBIEHDCM@ARDOPC?5listening?5on?5port?5?$CFd?$AA@ 0043bc20     TCPHostInterface.obj
 0002:0000ac3c       ??_C@_0CM@CEEOPJFC@ARDOPC?5listening?5for?5KISS?5frames@ 0043bc3c     TCPHostInterface.obj
 0002:0000ac68       ??_C@_09NJFFHCJB@RADIOHEX?5?$AA@ 0043bc68     TCPHostInterface.obj
 0002:0000ac74       ??_C@_0O@JCHNMNAC@listen?5select?$AA@ 0043bc74     TCPHostInterface.obj
 0002:0000ac84       ??_C@_0BJ@BDIKMMJL@accept?$CI?$CJ?5failed?5error?5?$CFd?$AA@ 0043bc84     TCPHostInterface.obj
 0002:0000aca0       ??_C@_0BP@CBOBIHKI@Host?5Control?5Session?5Connected?$AA@ 0043bca0     TCPHostInterface.obj
 0002:0000acc0       ??_C@_0BD@BLODFPPB@data?5listen?5select?$AA@ 0043bcc0     TCPHostInterface.obj
 0002:0000acd4       ??_C@_0BM@MDNEAFNG@Host?5Data?5Session?5Connected?$AA@ 0043bcd4     TCPHostInterface.obj
 0002:0000acf0       ??_C@_0BC@KIEIGNNE@pkt?5listen?5select?$AA@ 0043bcf0     TCPHostInterface.obj
 0002:0000ad04       ??_C@_0BN@NHOHBPHK@accept?$CI?$CJ?5pkt?5failed?5error?5?$CFd?$AA@ 0043bd04     TCPHostInterface.obj
 0002:0000ad24       ??_C@_0BJ@MHPLNFPC@Packet?5Session?5Connected?$AA@ 0043bd24     TCPHostInterface.obj
 0002:0000ad40       ??_C@_0BH@DIEGFFCM@Data?5Select?5failed?5?$CFd?5?$AA@ 0043bd40     TCPHostInterface.obj
 0002:0000ad58       ??_C@_0BM@KHKGDEHE@TCP?5Control?5Connection?5lost?$AA@ 0043bd58     TCPHostInterface.obj
 0002:0000ad74       ??_C@_0BJ@MEMOJNMG@TCP?5Data?5Connection?5lost?$AA@ 0043bd74     TCPHostInterface.obj
 0002:0000ad90       ??_C@_0BG@BNKECCJB@Pkt?5Select?5failed?5?$CFd?5?$AA@ 0043bd90     TCPHostInterface.obj
 0002:0000ada8       ??_C@_0BJ@BBBBLIPC@Pkt?5Data?5Connection?5lost?$AA@ 0043bda8     TCPHostInterface.obj
 0002:0000adc4       ??_C@_0BO@NMMALMHJ@GUI?5Connected?5from?5Address?5?$CFs?$AA@ 0043bdc4     TCPHostInterface.obj
 0002:0000ade4       ??_C@_09KGLGMLNJ@Waterfall?$AA@ 0043bde4     TCPHostInterface.obj
 0002:0000adf0       ??_C@_08OGJKIIIN@Spectrum?$AA@ 0043bdf0     TCPHostInterface.obj
 0002:0000adfc       ??_C@_07MIKIFGAL@Disable?$AA@ 0043bdfc     TCPHostInterface.obj
 0002:0000ae04       ??_C@_08BBHODFPJ@SENDCWID?$AA@ 0043be04     TCPHostInterface.obj
 0002:0000ae10       ??_C@_0BE@LAAMEGO@GUI?5Connection?5lost?$AA@ 0043be10     TCPHostInterface.obj
 0002:0000ae24       ??_C@_0BK@CJAPEFAE@ARDOPC?5opening?5port?5com?$CFd?$AA@ 0043be24     WinSerial.obj
 0002:0000ae40       ??_C@_0BC@NDODKIPF@?2?2?4?2pipe?2BPQCOM?$CFd?$AA@ 0043be40     WinSerial.obj
 0002:0000ae54       ??_C@_0BJ@FLLNAJHM@ARDOPC?5opened?5port?5com?$CFd?$AA@ 0043be54     WinSerial.obj
 0002:0000ae70       ??_C@_0CC@HIJMGLJK@ARDOPC?5Open?5Failed?5for?5Port?5com?$CF@ 0043be70     WinSerial.obj
 0002:0000ae94       ??_C@_0P@DHEAIDEI@Ctrl?9C?5event?6?6?$AA@ 0043be94     Waveout1.obj
 0002:0000aea4       ??_C@_0BD@IEMCODJ@Ctrl?9Close?5event?6?6?$AA@ 0043bea4     Waveout1.obj
 0002:0000aeb8       ??_C@_0BD@NJMGMAPN@Ctrl?9Break?5event?6?6?$AA@ 0043beb8     Waveout1.obj
 0002:0000aecc       ??_C@_0BE@CPCMPGIA@Ctrl?9Logoff?5event?6?6?$AA@ 0043becc     Waveout1.obj
 0002:0000aee0       ??_C@_0BG@FPFAHHFD@Ctrl?9Shutdown?5event?6?6?$AA@ 0043bee0     Waveout1.obj
 0002:0000aef8       ??_C@_0L@ECPLGNKA@ARDOPDebug?$AA@ 0043bef8     Waveout1.obj
 0002:0000af04       ??_C@_05GFOLEBJA@?$CFs?1?$CFs?$AA@ 0043bf04     Waveout1.obj
 0002:0000af0c       ??_C@_0P@JHJNANGF@ARDOPException?$AA@ 0043bf0c     Waveout1.obj
 0002:0000af1c       ??_C@_0N@PEJKECFM@ARDOPSession?$AA@ 0043bf1c     Waveout1.obj
 0002:0000af2c       ??_C@_0O@HIOLICNJ@?$CFs?5Version?5?$CFs?$AA@ 0043bf2c     Waveout1.obj
 0002:0000af3c       ??_C@_03GJALCMIF@COM?$AA@  0043bf3c     Waveout1.obj
 0002:0000af40       ??_C@_02MDDDDAID@0x?$AA@   0043bf40     Waveout1.obj
 0002:0000af44       ??_C@_02HDBGODGB@?2?2?$AA@ 0043bf44     Waveout1.obj
 0002:0000af48       ??_C@_0BH@CFMCJLNL@CAT?5Control?5on?5port?5?$CFs?$AA@ 0043bf48     Waveout1.obj
 0002:0000af60       ??_C@_0BD@ICBHLKPE@PTT?5using?5CAT?5Port?$AA@ 0043bf60     Waveout1.obj
 0002:0000af74       ??_C@_0CP@OLJMGNIB@Warning?5PTT?5Off?5string?5defined?5b@ 0043bf74     Waveout1.obj
 0002:0000afa4       ??_C@_0BN@HAJDAIGK@Using?5RTS?5on?5port?5?$CFs?5for?5PTT?$AA@ 0043bfa4     Waveout1.obj
 0002:0000afc4       ??_C@_0CC@IKBAHAKM@Failed?5to?5set?5High?5Priority?5?$CI?$CFd?$CJ@ 0043bfc4     Waveout1.obj
 0002:0000afe8       ??_C@_06NGCFLHDP@?$CFs?5?$CFi?$AN?$AA@ 0043bfe8     Waveout1.obj
 0002:0000aff0       ??_C@_0BA@IOBALCBJ@Capture?5Devices?$AA@ 0043bff0     Waveout1.obj
 0002:0000b000       ??_C@_01IHBHIGKO@?0?$AA@   0043c000     Waveout1.obj
 0002:0000b004       ??_C@_05OPEIBKFE@?$CFd?5?$CFs?$AA@ 0043c004     Waveout1.obj
 0002:0000b00c       ??_C@_0BB@LMJNJDED@Playback?5Devices?$AA@ 0043c00c     Waveout1.obj
 0002:0000b020       ??_C@_05BHNINOOF@?$CFi?5?$CFs?$AA@ 0043c020     Waveout1.obj
 0002:0000b028       ??_C@_0CK@BPNFGINF@Failed?5to?5open?5WaveOut?5Device?5?$CFs@ 0043c028     Waveout1.obj
 0002:0000b054       ??_C@_0BJ@IJKIDLIC@Opened?5WaveOut?5Device?5?$CFs?$AA@ 0043c054     Waveout1.obj
 0002:0000b070       ??_C@_0CJ@PAGFNBAI@Failed?5to?5open?5WaveIn?5Device?5?$CFs?5@ 0043c070     Waveout1.obj
 0002:0000b09c       ??_C@_0BI@OBALNEGD@Opened?5WaveIn?5Device?5?$CFs?$AA@ 0043c09c     Waveout1.obj
 0002:0000b0b4       ??_C@_0BB@OGCHOANN@INPUTPEAKS?5?$CFd?5?$CFd?$AA@ 0043c0b4     Waveout1.obj
 0002:0000b0c8       ??_C@_0BF@IMPHBOGP@Input?5peaks?5?$DN?5?$CFd?0?5?$CFd?$AA@ 0043c0c8     Waveout1.obj
 0002:0000b0e0       ??_C@_02PCIJFNDE@?$AN?6?$AA@ 0043c0e0     Waveout1.obj
 0002:0000b0e4       ??_C@_0BG@CCGFPOIE@?$CFs?$CFs_?$CF04d?$CF02d?$CF02d?4log?$AA@ 0043c0e4     Waveout1.obj
 0002:0000b0fc       ??_C@_0BG@HLBJEOMF@?$CFs?$CFd_?$CF04d?$CF02d?$CF02d?4log?$AA@ 0043c0fc     Waveout1.obj
 0002:0000b114       ??_C@_02BOGAIONP@ab?$AA@   0043c114     Waveout1.obj
 0002:0000b118       ??_C@_0BF@LJJADDKF@?$CF02d?3?$CF02d?3?$CF02d?4?$CF03d?5?$AA@ 0043c118     Waveout1.obj
 0002:0000b130       ??_C@_0BG@GMHPPKGN@?$CF02d?3?$CF02d?3?$CF02d?4?$CF03d?$AN?6?$AA@ 0043c130     Waveout1.obj
 0002:0000b148       ??_C@_08CBBAGGLA@PTT?5TRUE?$AA@ 0043c148     Waveout1.obj
 0002:0000b154       ??_C@_09BKKKJBLP@PTT?5FALSE?$AA@ 0043c154     Waveout1.obj
 0002:0000b160       ??_C@_0BG@BPOENPHH@?$FLMain?4KeyPTT?$FN?5?5PTT?9?$CFs?$AA@ 0043c160     Waveout1.obj
 0002:0000b178       ??_C@_04CDPLFOEF@?$CFc?$CFs?$AA@ 0043c178     Waveout1.obj
 0002:0000b180       ??_C@_09CGLEKNJI@?2?2?4?2COM?$CFd?$AA@ 0043c180     Waveout1.obj
 0002:0000b18c       ??_C@_0BP@JAHOJCK@?5COM?$CFd?5could?5not?5be?5opened?5?$AN?6?5?$AA@ 0043c18c     Waveout1.obj
 0002:0000b1ac       ??_C@_0BM@LCAFCKLE@?5?$CFs?5could?5not?5be?5opened?5?$AN?6?5?$AA@ 0043c1ac     Waveout1.obj
 0002:0000b1c8       ??_C@_0BH@PBDMLJNP@COM?$CFd?5Setup?5Failed?5?$CFd?5?$AA@ 0043c1c8     Waveout1.obj
 0002:0000b1e0       ??_C@_0BE@OMPOGOHP@?$CFs?5Setup?5Failed?5?$CFd?5?$AA@ 0043c1e0     Waveout1.obj
 0002:0000b1f4       ??_C@_0P@JFNNGCFK@?$CFs?5Quality?3?5?$CFd?$AA@ 0043c1f4     Waveout1.obj
 0002:0000b204       ??_C@_07FGKIDIDM@hid?4dll?$AA@ 0043c204     hid.obj
 0002:0000b20c       ??_C@_0BD@CBOMEPHA@HidD_GetAttributes?$AA@ 0043c20c     hid.obj
 0002:0000b220       ??_C@_0BL@OEJFEOIE@HidD_GetSerialNumberString?$AA@ 0043c220     hid.obj
 0002:0000b23c       ??_C@_0BL@NLNJBEKH@HidD_GetManufacturerString?$AA@ 0043c23c     hid.obj
 0002:0000b258       ??_C@_0BG@NNFFPJLB@HidD_GetProductString?$AA@ 0043c258     hid.obj
 0002:0000b270       ??_C@_0BA@ENIKBGID@HidD_SetFeature?$AA@ 0043c270     hid.obj
 0002:0000b280       ??_C@_0BA@FDKFKBMK@HidD_GetFeature?$AA@ 0043c280     hid.obj
 0002:0000b290       ??_C@_0BG@HBEPJNGD@HidD_GetIndexedString?$AA@ 0043c290     hid.obj
 0002:0000b2a8       ??_C@_0BG@NCCNKODK@HidD_GetPreparsedData?$AA@ 0043c2a8     hid.obj
 0002:0000b2c0       ??_C@_0BH@HPJNKOKM@HidD_FreePreparsedData?$AA@ 0043c2c0     hid.obj
 0002:0000b2d8       ??_C@_0N@PAEDFHIM@HidP_GetCaps?$AA@ 0043c2d8     hid.obj
 0002:0000b2e8       ??_C@_04MEDFEMKM@?$CGmi_?$AA@ 0043c2e8     hid.obj
 0002:0000b2f0       ??_C@_0BH@MOKGDOFO@unable?5to?5open?5device?6?$AA@ 0043c2f0     hid.obj
 0002:0000b308       ??_C@_0BD@OLIIILHC@Unable?5to?5write?$CI?$CJ?6?$AA@ 0043c308     hid.obj
 0002:0000b31c       ??_C@_0M@MKIBLGBJ@Error?3?5?$CFls?6?$AA@ 0043c31c     hid.obj
 0002:0000b328       ??_C@_04PCJFHION@help?$AA@ 0043c328     ARDOPCommon.obj
 0002:0000b330       ??_C@_0N@POEOBPJ@leaderlength?$AA@ 0043c330     ARDOPCommon.obj
 0002:0000b340       ??_C@_0L@DKDBGMAC@extradelay?$AA@ 0043c340     ARDOPCommon.obj
 0002:0000b34c       ??_C@_0M@FGHHFGJA@unkeystring?$AA@ 0043c34c     ARDOPCommon.obj
 0002:0000b358       ??_C@_09HAGDLDFD@keystring?$AA@ 0043c358     ARDOPCommon.obj
 0002:0000b364       ??_C@_03PFGOGFOL@cat?$AA@  0043c364     ARDOPCommon.obj
 0002:0000b368       ??_C@_03KNCPPMAB@ptt?$AA@  0043c368     ARDOPCommon.obj
 0002:0000b36c       ??_C@_06BCHOJLEN@logdir?$AA@ 0043c36c     ARDOPCommon.obj
 0002:0000b374       ??_C@_0BF@CIJJOBOJ@l?3c?3p?3g?3?3k?3u?3e?3hLRyz?$AA@ 0043c374     ARDOPCommon.obj
 0002:0000b38c       ??_C@_0P@FJIGJHI@?$CFs?5Version?5?$CFs?6?$AA@ 0043c38c     ARDOPCommon.obj
 0002:0000b39c       ??_C@_0CD@PCJGKABO@RADIOPTTON?5command?5string?5missin@ 0043c39c     ARDOPCommon.obj
 0002:0000b3c0       ??_C@_0BH@GDJAGEDC@PTTOnString?5?$CFs?5len?5?$CFd?6?$AA@ 0043c3c0     ARDOPCommon.obj
 0002:0000b3d8       ??_C@_0CE@KFKCCELL@RADIOPTTOFF?5command?5string?5missi@ 0043c3d8     ARDOPCommon.obj
 0002:0000b3fc       ??_C@_0BI@BFPDJHEO@PTTOffString?5?$CFs?5len?5?$CFd?6?$AA@ 0043c3fc     ARDOPCommon.obj
 0002:0000b414       ??_C@_0CK@GOONKCCB@Only?5three?5positional?5parameters@ 0043c414     ARDOPCommon.obj
 0002:0000b440       ??_C@_0CD@BLLGADIC@HID?5Device?5?$CFs?5VID?5?$CF04x?5PID?5?$CF04x?5@ 0043c440     ARDOPCommon.obj
 0002:0000b464       ??_C@_0CF@FAIACCEE@Using?5CM108?5device?5?$CF04x?3?$CF04x?5for@ 0043c464     ARDOPCommon.obj
 0002:0000b48c       ??_C@_0BO@FECCPLEO@Using?5CM108?5device?5?$CFs?5for?5PTT?$AA@ 0043c48c     ARDOPCommon.obj
 0002:0000b4ac       ??_C@_0CL@HEPGLKJL@Unable?5to?5open?5CM108?5device?5?$CFx?5?$CF@ 0043c4ac     ARDOPCommon.obj
 0002:0000b4d8       ??_C@_0CI@GJEEMEII@Unable?5to?5open?5CM108?5device?5?$CFs?5E@ 0043c4d8     ARDOPCommon.obj
 0002:0000b500       __real@408f400000000000    0043c500      CIL library: CIL module
 0002:0000b508       __real@4031ccccc0000000    0043c508      CIL library: CIL module
 0002:0000b510       __real@4049000000000000    0043c510      CIL library: CIL module
 0002:0000b518       __real@4024000000000000    0043c518      CIL library: CIL module
 0002:0000b520       __real@3ff3851eb851eb85    0043c520      CIL library: CIL module
 0002:0000b528       __real@3ff5c28f5c28f5c3    0043c528      CIL library: CIL module
 0002:0000b530       __real@3ffc000000000000    0043c530      CIL library: CIL module
 0002:0000b538       __real@4000000000000000    0043c538      CIL library: CIL module
 0002:0000b540       __real@3fe0000000000000    0043c540      CIL library: CIL module
 0002:0000b548       __real@401921fb40000000    0043c548      CIL library: CIL module
 0002:0000b550       __real@3f7acee9e0000000    0043c550      CIL library: CIL module
 0002:0000b558       __real@3bd6774f            0043c558      CIL library: CIL module
 0002:0000b55c       __real@3f000000            0043c55c      CIL library: CIL module
 0002:0000b560       __real@408e000000000000    0043c560      CIL library: CIL module
 0002:0000b568       __real@3faacee9e0000000    0043c568      CIL library: CIL module
 0002:0000b570       __real@3d56774f            0043c570      CIL library: CIL module
 0002:0000b578       __real@3f70cb2960000000    0043c578      CIL library: CIL module
 0002:0000b580       __real@0000000000000000    0043c580      CIL library: CIL module
 0002:0000b588       __real@3fd97aa260000000    0043c588      CIL library: CIL module
 0002:0000b590       __real@3ffffbe760000000    0043c590      CIL library: CIL module
 0002:0000b598       __real@406e000000000000    0043c598      CIL library: CIL module
 0002:0000b5a0       __real@3feffbe760000000    0043c5a0      CIL library: CIL module
 0002:0000b5a8       __real@3f81111120000000    0043c5a8      CIL library: CIL module
 0002:0000b5b0       __real@3fd8e56040000000    0043c5b0      CIL library: CIL module
 0002:0000b5b8       __real@405e000000000000    0043c5b8      CIL library: CIL module
 0002:0000b5c0       __real@c6ff7800            0043c5c0      CIL library: CIL module
 0002:0000b5c8       __real@c0dfef0000000000    0043c5c8      CIL library: CIL module
 0002:0000b5d0       __real@46ff7800            0043c5d0      CIL library: CIL module
 0002:0000b5d8       __real@40dfef0000000000    0043c5d8      CIL library: CIL module
 0002:0000b5e0       __real@3fb999999999999a    0043c5e0      CIL library: CIL module
 0002:0000b5e8       __real@3fd8e703a0000000    0043c5e8      CIL library: CIL module
 0002:0000b5f0       __real@c08f400000000000    0043c5f0      CIL library: CIL module
 0002:0000b5f8       __real@40c7700000000000    0043c5f8      CIL library: CIL module
 0002:0000b600       __real@3f490fda            0043c600      CIL library: CIL module
 0002:0000b604       __real@3fc90fda            0043c604      CIL library: CIL module
 0002:0000b608       __real@4059000000000000    0043c608      CIL library: CIL module
 0002:0000b610       __real@4069000000000000    0043c610      CIL library: CIL module
 0002:0000b618       __real@3ff0000000000000    0043c618      CIL library: CIL module
 0002:0000b620       __real@4046000000000000    0043c620      CIL library: CIL module
 0002:0000b628       __real@3f50624dd2f1a9fc    0043c628      CIL library: CIL module
 0002:0000b630       __real@3fe8000000000000    0043c630      CIL library: CIL module
 0002:0000b638       __real@3fd6571840000000    0043c638      CIL library: CIL module
 0002:0000b640       __real@3fd0000000000000    0043c640      CIL library: CIL module
 0002:0000b648       __real@400921fb40000000    0043c648      CIL library: CIL module
 0002:0000b650       __real@400199999999999a    0043c650      CIL library: CIL module
 0002:0000b658       __real@3fc921fb40000000    0043c658      CIL library: CIL module
 0002:0000b660       __real@3fc0000000000000    0043c660      CIL library: CIL module
 0002:0000b668       __real@4045000000000000    0043c668      CIL library: CIL module
 0002:0000b670       __real@4044000000000000    0043c670      CIL library: CIL module
 0002:0000b678       __real@4014000000000000    0043c678      CIL library: CIL module
 0002:0000b680       __real@40059999a0000000    0043c680      CIL library: CIL module
 0002:0000b688       __real@4008000000000000    0043c688      CIL library: CIL module
 0002:0000b690       __real@42040000            0043c690      CIL library: CIL module
 0002:0000b694       __real@41f80000            0043c694      CIL library: CIL module
 0002:0000b698       __real@41e80000            0043c698      CIL library: CIL module
 0002:0000b69c       __real@41d80000            0043c69c      CIL library: CIL module
 0002:0000b6a0       __real@c47a0000            0043c6a0      CIL library: CIL module
 0002:0000b6a8       __real@4000c18911e9e1b0    0043c6a8      CIL library: CIL module
 0002:0000b6b0       __real@3fe921fb40000000    0043c6b0      CIL library: CIL module
 0002:0000b6b8       __real@4004f1a137cf0308    0043c6b8      CIL library: CIL module
 0002:0000b6c0       __real@41100000            0043c6c0      CIL library: CIL module
 0002:0000b6c8       __real@c00921fb40000000    0043c6c8      CIL library: CIL module
 0002:0000b6d0       __real@41f00000            0043c6d0      CIL library: CIL module
 0002:0000b6d4       __real@c9742400            0043c6d4      CIL library: CIL module
 0002:0000b6d8       __real@459c4000            0043c6d8      CIL library: CIL module
 0002:0000b6e0       __real@4034cccccccccccd    0043c6e0      CIL library: CIL module
 0002:0000b6e8       __real@41200000            0043c6e8      CIL library: CIL module
 0002:0000b6f0       __real@40a7700000000000    0043c6f0      CIL library: CIL module
 0002:0000b6f8       __real@405d800000000000    0043c6f8      CIL library: CIL module
 0002:0000b700       __real@447a0000            0043c700      CIL library: CIL module
 0002:0000b704       __real@c2c80000            0043c704      CIL library: CIL module
 0002:0000b708       __real@4029000000000000    0043c708      CIL library: CIL module
 0002:0000b710       __real@3fe3d70a3d70a3d7    0043c710      CIL library: CIL module
 0002:0000b718       __real@3f947ae147ae147b    0043c718      CIL library: CIL module
 0002:0000b720       __real@3f90624dd2f1a9fc    0043c720      CIL library: CIL module
 0002:0000b728       __real@3f80624dd2f1a9fc    0043c728      CIL library: CIL module
 0002:0000b730       __real@4010000000000000    0043c730      CIL library: CIL module
 0002:0000b738       __real@3fe9999998000000    0043c738      CIL library: CIL module
 0002:0000b740       __real@3fc99999a0000000    0043c740      CIL library: CIL module
 0002:0000b748       __real@4037cccccccccccd    0043c748      CIL library: CIL module
 0002:0000b750       __real@8000000000000000    0043c750      CIL library: CIL module
 0002:0000b758       __real@3fc00000            0043c758      CIL library: CIL module
 0002:0000b75c       __real@80000000            0043c75c      CIL library: CIL module
 0002:0000b760       __real@3f99999a            0043c760      CIL library: CIL module
 0002:0000b764       __real@44bb8000            0043c764      CIL library: CIL module
 0002:0000b768       __real@40888b2f60000000    0043c768      CIL library: CIL module
 0002:0000b770       __real@40988b2f60000000    0043c770      CIL library: CIL module
 0002:0000b778       __real@3fc999999999999a    0043c778      CIL library: CIL module
 0002:0000b780       __real@3fd999999999999a    0043c780      CIL library: CIL module
 0002:0000b788       __real@3fd3333333333333    0043c788      CIL library: CIL module
 0002:0000b790       __real@40a00000            0043c790      CIL library: CIL module
 0002:0000b798       __real@c02f800000000000    0043c798      CIL library: CIL module
 0002:0000b7a0       __real@3fecccccc0000000    0043c7a0      CIL library: CIL module
 0002:0000b7a8       __real@40c3880000000000    0043c7a8      CIL library: CIL module
 0002:0000b7b0       __real@3f1a36e2eb1c432d    0043c7b0      CIL library: CIL module
 0002:0000b7b8       __real@40800000            0043c7b8      CIL library: CIL module
 0002:0000b7bc       __real@40900000            0043c7bc      CIL library: CIL module
 0002:0000b7c0       __real@40b00000            0043c7c0      CIL library: CIL module
 0002:0000b7c4       __real@40c00000            0043c7c4      CIL library: CIL module
 0002:0000b7c8       __real@401a000000000000    0043c7c8      CIL library: CIL module
 0002:0000b7d0       __real@3f847ae147ae147b    0043c7d0      CIL library: CIL module
 0002:0000b7d8       __real@4004000000000000    0043c7d8      CIL library: CIL module
 0002:0000b7e0       __real@40b3880000000000    0043c7e0      CIL library: CIL module
 0002:0000b7e8       __real@40277020c0000000    0043c7e8      CIL library: CIL module
 0002:0000b7f0       __real@3fe999999999999a    0043c7f0      CIL library: CIL module
 0002:0000b7f8       __real@501502f9            0043c7f8      CIL library: CIL module
 0002:0000b7fc       __real@2edbe6ff            0043c7fc      CIL library: CIL module
 0002:0000b800       __real@3e800000            0043c800      CIL library: CIL module
 0002:0000b804       __real@3e8a3d71            0043c804      CIL library: CIL module
 0002:0000b808       __real@3f266666            0043c808      CIL library: CIL module
 0002:0000b80c       __real@3f2b851f            0043c80c      CIL library: CIL module
 0002:0000b810       __real@3fe2215c20000000    0043c810      CIL library: CIL module
 0002:0000b818       __real@40000000            0043c818      CIL library: CIL module
 0002:0000b81c       __real@3eb33333            0043c81c      CIL library: CIL module
 0002:0000b820       __real@3ecccccd            0043c820      CIL library: CIL module
 0002:0000b828       __real@3fe3333340000000    0043c828      CIL library: CIL module
 0002:0000b830       __real@3fe6666660000000    0043c830      CIL library: CIL module
 0002:0000b838       __real@3fe74cd620000000    0043c838      CIL library: CIL module
 0002:0000b840       __real@3feaf72040000000    0043c840      CIL library: CIL module
 0002:0000b848       __real@40d9640000000000    0043c848      CIL library: CIL module
 0002:0000b850       __real@3feccccccccccccd    0043c850      CIL library: CIL module
 0002:0000c198       __DEFAULT_CW_in_mem        0043d198     LIBCMT:common.obj
 0002:0000c19a       __pi_by_2_to_61            0043d19a     LIBCMT:common.obj
 0002:00010ce0       __load_config_used         00441ce0     LIBCMT:loadcfg.obj
 0002:00010d60       ___safe_se_handler_table   00441d60     <linker-defined>
 0002:00010d6c       ___rtc_iaa                 00441d6c     LIBCMT:initsect.obj
 0002:00010d70       ___rtc_izz                 00441d70     LIBCMT:initsect.obj
 0002:00010d74       ___rtc_taa                 00441d74     LIBCMT:initsect.obj
 0002:00010d78       ___rtc_tzz                 00441d78     LIBCMT:initsect.obj
 0002:00011234       __IMPORT_DESCRIPTOR_KERNEL32 00442234     kernel32:KERNEL32.dll
 0002:00011248       __IMPORT_DESCRIPTOR_SETUPAPI 00442248     setupapi:SETUPAPI.dll
 0002:0001125c       __IMPORT_DESCRIPTOR_WINMM  0044225c     winmm:WINMM.dll
 0002:00011270       __IMPORT_DESCRIPTOR_WS2_32 00442270     WS2_32:WS2_32.dll
 0002:00011284       __NULL_IMPORT_DESCRIPTOR   00442284     kernel32:KERNEL32.dll
 0003:00000000       __iob                      00443000     LIBCMT:_file.obj
 0003:00000280       ___abort_behavior          00443280     LIBCMT:abort.obj
 0003:000003f8       __aexit_rtn                004433f8     LIBCMT:crt0dat.obj
 0003:000003fc       ___app_type                004433fc     LIBCMT:crt0.obj
 0003:00000400       ___security_cookie         00443400     LIBCMT:gs_cookie.obj
 0003:00000404       ___security_cookie_complement 00443404     LIBCMT:gs_cookie.obj
 0003:00000408       ___nullstring              00443408     LIBCMT:output.obj
 0003:0000040c       ___wnullstring             0044340c     LIBCMT:output.obj
 0003:00000410       __lpdays                   00443410     LIBCMT:days.obj
 0003:00000444       __days                     00443444     LIBCMT:days.obj
 0003:00000480       ___flsindex                00443480     LIBCMT:tidtable.obj
 0003:00000484       ___getvalueindex           00443484     LIBCMT:tidtable.obj
 0003:00000488       ___initialmbcinfo          00443488     LIBCMT:mbctype.obj
 0003:000006a8       __mbctype                  004436a8     LIBCMT:mbctype.obj
 0003:000007b0       __mbcasemap                004437b0     LIBCMT:mbctype.obj
 0003:000008b0       ___ptmbcinfo               004438b0     LIBCMT:mbctype.obj
 0003:000009ac       ___globallocalestatus      004439ac     LIBCMT:glstatus.obj
 0003:000009b0       ___clocalestr              004439b0     LIBCMT:nlsdata2.obj
 0003:000009b8       ___initiallocinfo          004439b8     LIBCMT:nlsdata2.obj
 0003:00000a90       ___ptlocinfo               00443a90     LIBCMT:nlsdata2.obj
 0003:00000a94       ___lc_clike                00443a94     LIBCMT:nlsdata2.obj
 0003:00000a98       ___initiallocalestructinfo 00443a98     LIBCMT:nlsdata2.obj
 0003:00000aa0       ___badioinfo               00443aa0     LIBCMT:ioinit.obj
 0003:00000bf0       __amblksiz                 00443bf0     LIBCMT:heapinit.obj
 0003:00000cb8       __sys_errlist              00443cb8     LIBCMT:syserr.obj
 0003:00000d68       __sys_nerr                 00443d68     LIBCMT:syserr.obj
 0003:00000d70       __cfltcvt_tab              00443d70     LIBCMT:cmiscdat.obj
 0003:00000d98       __XcptActTab               00443d98     LIBCMT:winxfltr.obj
 0003:00000e10       __First_FPE_Indx           00443e10     LIBCMT:winxfltr.obj
 0003:00000e14       __Num_FPE                  00443e14     LIBCMT:winxfltr.obj
 0003:00000e18       __XcptActTabSize           00443e18     LIBCMT:winxfltr.obj
 0003:00000e1c       __XcptActTabCount          00443e1c     LIBCMT:winxfltr.obj
 0003:00000e20       __pctype                   00443e20     LIBCMT:ctype.obj
 0003:00000e24       __pwctype                  00443e24     LIBCMT:ctype.obj
 0003:00000e28       ___lc_time_c               00443e28     LIBCMT:strftime.obj
 0003:00000ee0       ___lc_time_curr            00443ee0     LIBCMT:strftime.obj
 0003:00000ee4       ___lconv_static_decimal    00443ee4     LIBCMT:lconv.obj
 0003:00000ee8       ___lconv_c                 00443ee8     LIBCMT:lconv.obj
 0003:00000f18       ___lconv                   00443f18     LIBCMT:lconv.obj
 0003:00000f1c       ___mb_cur_max              00443f1c     LIBCMT:nlsdata1.obj
 0003:00000f20       ___decimal_point           00443f20     LIBCMT:nlsdata1.obj
 0003:00000f24       ___decimal_point_length    00443f24     LIBCMT:nlsdata1.obj
 0003:00000f30       __matherr_flag             00443f30     LIBCMT:matherr.obj
 0003:00000f34       __fltused                  00443f34     LIBCMT:fpinit.obj
 0003:00000f38       __ldused                   00443f38     LIBCMT:fpinit.obj
 0003:00001028       __d_inf                    00444028     LIBCMT:util.obj
 0003:00001030       __d_ind                    00444030     LIBCMT:util.obj
 0003:00001038       __d_max                    00444038     LIBCMT:util.obj
 0003:00001040       __d_min                    00444040     LIBCMT:util.obj
 0003:00001048       __d_mzero                  00444048     LIBCMT:util.obj
 0003:00001070       __NLG_Destination          00444070     LIBCMT:exsup.obj
 0003:00001080       __timezone                 00444080     LIBCMT:timeset.obj
 0003:00001084       __daylight                 00444084     LIBCMT:timeset.obj
 0003:00001088       __dstbias                  00444088     LIBCMT:timeset.obj
 0003:00001110       __tzname                   00444110     LIBCMT:timeset.obj
 0003:00001130       __coninpfh                 00444130     LIBCMT:initcon.obj
 0003:00001134       __confh                    00444134     LIBCMT:initcon.obj
 0003:00001138       __lookuptrailbytes         00444138     LIBCMT:read.obj
 0003:00001270       __pow10pos                 00444270     LIBCMT:constpow.obj
 0003:000013d0       __pow10neg                 004443d0     LIBCMT:constpow.obj
 0003:00001530       _PTTMode                   00444530     ARDOPCommon.obj
 0003:00001534       _UseLeftRX                 00444534     Waveout1.obj
 0003:000015c8       _HelpScreen                004445c8     ARDOPCommon.obj
 0003:00001b9c       _UseRightRX                00444b9c     Waveout1.obj
 0003:00001ba0       _CaptureDevice             00444ba0     Waveout1.obj
 0003:00001bf0       _PlaybackDevice            00444bf0     Waveout1.obj
 0003:00001c40       _UseLeftTX                 00444c40     Waveout1.obj
 0003:00001c44       _UseRightTX                00444c44     Waveout1.obj
 0003:00001c48       _LogName                   00444c48     Waveout1.obj
 0003:00001f48       _CaptureIndex              00444f48     Waveout1.obj
 0003:00001f4c       _PlayBackIndex             00444f4c     Waveout1.obj
 0003:00001f50       _wfx                       00444f50     Waveout1.obj
 0003:00001f62       _PORTWINDOW                00444f62     pktSession.obj
 0003:00001f63       _bytSessionID              00444f63     ARQ.obj
 0003:00001f64       _pixelPointer              00444f64     Waveout1.obj
 0003:00001f68       _header                    00444f68     Waveout1.obj
 0003:00001fa8       _inheader                  00444fa8     Waveout1.obj
 0003:00002048       _intLeaderRcvdMs           00445048     SoundInput.obj
 0003:0000204c       _intPriorMixedSamplesLength 0044504c     SoundInput.obj
 0003:00002050       _intCenterFreq             00445050     SoundInput.obj
 0003:00002054       _Good                      00445054     SoundInput.obj
 0003:00002060       _Decode600Buffer           00445060     SoundInput.obj
 0003:00002064       _dbl2Pi                    00445064     SoundInput.obj
 0003:00002068       _dblNCOFreq                00445068     SoundInput.obj
 0003:0000206c       _dblNCOPhaseInc            0044506c     SoundInput.obj
 0003:00002070       _intMFSReadPtr             00445070     SoundInput.obj
 0003:00002074       _xdblR                     00445074     SoundInput.obj
 0003:00002078       _xintN                     00445078     SoundInput.obj
 0003:00002084       _DataChannel               00445084     SCSHostInterface.obj
 0003:00002088       _PORTT1                    00445088     pktSession.obj
 0003:0000208c       _PORTN2                    0044508c     pktSession.obj
 0003:00002090       _PORTMAXDIGIS              00445090     pktSession.obj
 0003:00002094       _T3                        00445094     pktSession.obj
 0003:00002098       _L2KILLTIME                00445098     pktSession.obj
 0003:0000209c       _initMode                  0044509c     pktSession.obj
 0003:000020a0       _SABMMode                  004450a0     pktSession.obj
 0003:000020a4       _initMaxFrame              004450a4     pktSession.obj
 0003:000020a8       _CtlMode                   004450a8     pktSession.obj
 0003:000020e8       _QSTCALL                   004450e8     pktSession.obj
 0003:000020f0       _NODECALL                  004450f0     pktSession.obj
 0003:000020f8       _pktMaxBandwidth           004450f8     pktARDOP.obj
 0003:000020fc       _pktMaxFrame               004450fc     pktARDOP.obj
 0003:00002100       _pktPacLen                 00445100     pktARDOP.obj
 0003:00002104       _pktModeLen                00445104     pktARDOP.obj
 0003:00002108       _dblQAMCarRatio            00445108     Modulate.obj
 0003:00002114       _Last120Put                00445114     Modulate.obj
 0003:00002118       _optind                    00445118     getopt.obj
 0003:0000211c       _opterr                    0044511c     getopt.obj
 0003:00002120       _optopt                    00445120     getopt.obj
 0003:00002124       _intHoldMs                 00445124     BusyDetect.obj
 0003:00002128       _intLastARQDataFrameToHost 00445128     ARQ.obj
 0003:0000212c       _intTrackingQuality        0044512c     ARQ.obj
 0003:00002130       _blnListen                 00445130     ARQ.obj
 0003:00002134       _Monitor                   00445134     ARQ.obj
 0003:00002138       _AutoBreak                 00445138     ARQ.obj
 0003:00002174       _GridSquare                00445174     ARDOPC.obj
 0003:00002180       _UseKISS                   00445180     ARDOPC.obj
 0003:00002184       _WaterfallActive           00445184     ARDOPC.obj
 0003:00002188       _LeaderLength              00445188     ARDOPC.obj
 0003:0000218c       _ARQTimeout                0044518c     ARDOPC.obj
 0003:00002190       _TuningRange               00445190     ARDOPC.obj
 0003:00002194       _TXLevel                   00445194     ARDOPC.obj
 0003:00002198       _ARQConReqRepeats          00445198     ARDOPC.obj
 0003:0000219c       _DebugLog                  0044519c     ARDOPC.obj
 0003:000021a0       _CommandTrace              004451a0     ARDOPC.obj
 0003:000021a4       _DriveLevel                004451a4     ARDOPC.obj
 0003:000021a8       _strFECMode                004451a8     ARDOPC.obj
 0003:000021b8       _Squelch                   004451b8     ARDOPC.obj
 0003:000021bc       _BusyDet                   004451bc     ARDOPC.obj
 0003:000021c0       _ARQBandwidth              004451c0     ARDOPC.obj
 0003:000021c4       _NegotiateBW               004451c4     ARDOPC.obj
 0003:000021c8       _port                      004451c8     ARDOPC.obj
 0003:000021cc       _AccumulateStats           004451cc     ARDOPC.obj
 0003:000021d0       _fastStart                 004451d0     ARDOPC.obj
 0003:000021d4       _ConsoleLogLevel           004451d4     ARDOPC.obj
 0003:000021d8       _FileLogLevel              004451d8     ARDOPC.obj
 0003:000021dc       _EnablePingAck             004451dc     ARDOPC.obj
 0003:000021e0       _pttGPIOPin                004451e0     ARDOPC.obj
 0003:000021e4       _CATBAUD                   004451e4     ARDOPC.obj
 0003:000021e8       _PTTBAUD                   004451e8     ARDOPC.obj
 0003:000021ec       _Capturing                 004451ec     ARDOPC.obj
 0003:000021f0       _ProtocolMode              004451f0     ARDOPC.obj
 0003:000021f4       _bytValidFrameTypesLengthISS 004451f4     ARDOPC.obj
 0003:000021f8       _bytValidFrameTypesLengthALL 004451f8     ARDOPC.obj
 0003:000021fc       _strAllDataModesLen        004451fc     ARDOPC.obj
 0003:00002200       _NPAR                      00445200     ARDOPC.obj
 0003:00002204       _EEPROM                    00445204     afskModule.obj
 0003:00002270       __half                     00445270     LIBCMT:pow.obj
 0003:00002280       __OP_ATAN2jmptab           00445280     LIBCMT:87triga.obj
 0003:000022d0       __indefinite               004452d0     LIBCMT:87disp.obj
 0003:000022da       __piby2                    004452da     LIBCMT:87disp.obj
 0003:00002300       __infinity                 00445300     LIBCMT:87tran.obj
 0003:0000230a       __minfinity                0044530a     LIBCMT:87tran.obj
 0003:00002314       __logemax                  00445314     LIBCMT:87tran.obj
 0003:0000233a       __OP_EXPjmptab             0044533a     LIBCMT:87tran.obj
 0003:000024e0       __cflush                   004454e0     LIBCMT:_file.obj
 0003:000024e8       __umaskval                 004454e8     LIBCMT:crt0dat.obj
 0003:000024ec       __osplatform               004454ec     LIBCMT:crt0dat.obj
 0003:000024f0       __osver                    004454f0     LIBCMT:crt0dat.obj
 0003:000024f4       __winver                   004454f4     LIBCMT:crt0dat.obj
 0003:000024f8       __winmajor                 004454f8     LIBCMT:crt0dat.obj
 0003:000024fc       __winminor                 004454fc     LIBCMT:crt0dat.obj
 0003:00002500       ___argc                    00445500     LIBCMT:crt0dat.obj
 0003:00002504       ___argv                    00445504     LIBCMT:crt0dat.obj
 0003:00002508       ___wargv                   00445508     LIBCMT:crt0dat.obj
 0003:0000250c       __environ                  0044550c     LIBCMT:crt0dat.obj
 0003:00002510       ___initenv                 00445510     LIBCMT:crt0dat.obj
 0003:00002514       __wenviron                 00445514     LIBCMT:crt0dat.obj
 0003:00002518       ___winitenv                00445518     LIBCMT:crt0dat.obj
 0003:0000251c       __pgmptr                   0044551c     LIBCMT:crt0dat.obj
 0003:00002520       __wpgmptr                  00445520     LIBCMT:crt0dat.obj
 0003:00002524       __exitflag                 00445524     LIBCMT:crt0dat.obj
 0003:00002528       __C_Termination_Done       00445528     LIBCMT:crt0dat.obj
 0003:0000252c       __C_Exit_Done              0044552c     LIBCMT:crt0dat.obj
 0003:00002530       __aenvptr                  00445530     LIBCMT:crt0.obj
 0003:00002534       __wenvptr                  00445534     LIBCMT:crt0.obj
 0003:00002538       ___error_mode              00445538     LIBCMT:crt0.obj
 0003:00002864       ___pInvalidArgHandler      00445864     LIBCMT:invarg.obj
 0003:00002868       __maxwait                  00445868     LIBCMT:crtheap.obj
 0003:0000286c       _gpFlsAlloc                0044586c     LIBCMT:tidtable.obj
 0003:00002870       _gpFlsGetValue             00445870     LIBCMT:tidtable.obj
 0003:00002874       _gpFlsSetValue             00445874     LIBCMT:tidtable.obj
 0003:00002878       _gpFlsFree                 00445878     LIBCMT:tidtable.obj
 0003:00002880       ___mbulinfo                00445880     LIBCMT:mbctype.obj
 0003:0000288c       ___mbcodepage              0044588c     LIBCMT:mbctype.obj
 0003:00002890       ___ismbcodepage            00445890     LIBCMT:mbctype.obj
 0003:00002894       ___mblcid                  00445894     LIBCMT:mbctype.obj
 0003:00002898       ___locale_changed          00445898     LIBCMT:setlocal.obj
 0003:0000289c       ___lc_handle               0044589c     LIBCMT:nlsdata2.obj
 0003:000028b4       ___lc_codepage             004458b4     LIBCMT:nlsdata2.obj
 0003:000028b8       ___lc_collate_cp           004458b8     LIBCMT:nlsdata2.obj
 0003:00002a10       __stdbuf                   00445a10     LIBCMT:_sftbuf.obj
 0003:00002a1c       __crtheap                  00445a1c     LIBCMT:heapinit.obj
 0003:00002a20       ___sbh_pHeaderDefer        00445a20     LIBCMT:sbheap.obj
 0003:00002d3c       ?_pnhHeap@@3P6AHI@ZA       00445d3c     LIBCMT:handler.obj
 0003:00002d40       __newmode                  00445d40     LIBCMT:_newmode.obj
 0003:00002d5c       ?__pInconsistency@@3P6AXXZA 00445d5c     LIBCMT:hooks.obj
 0003:00002d6c       ___pPurecall               00445d6c     LIBCMT:inithelp.obj
 0003:00002e88       ___lconv_static_null       00445e88     LIBCMT:lconv.obj
 0003:00002ea0       ___fastflag                00445ea0     LIBCMT:fpinit.obj
 0003:00002ea4       __adjust_fdiv              00445ea4     LIBCMT:fpinit.obj
 0003:00002ea8       __commode                  00445ea8     LIBCMT:ncommode.obj
 0003:00002f68       __outputformat             00445f68     LIBCMT:outputformat.obj
 0003:00002f6c       __fmode                    00445f6c     LIBCMT:txtmode.obj
 0003:00003bfc       _Callsign                  00446bfc     ARDOPC.obj
 0003:00003c06       _PTTOnCmdLen               00446c06     ARDOPC.obj
 0003:00003c07       _PTTOffCmdLen              00446c07     ARDOPC.obj
 0003:00003c08       _wantCWID                  00446c08     ARDOPC.obj
 0003:00003c0c       _CWOnOff                   00446c0c     ARDOPC.obj
 0003:00003c10       _NeedID                    00446c10     ARDOPC.obj
 0003:00003c14       _NeedCWID                  00446c14     ARDOPC.obj
 0003:00003c18       _NeedConReq                00446c18     ARDOPC.obj
 0003:00003c1c       _NeedPing                  00446c1c     ARDOPC.obj
 0003:00003c20       _NeedCQ                    00446c20     ARDOPC.obj
 0003:00003c24       _NeedTwoToneTest           00446c24     ARDOPC.obj
 0003:00003c28       _SpectrumActive            00446c28     ARDOPC.obj
 0003:00003c2c       _blnPINGrepeating          00446c2c     ARDOPC.obj
 0003:00003c30       _blnFramePending           00446c30     ARDOPC.obj
 0003:00003c34       _intPINGRepeats            00446c34     ARDOPC.obj
 0003:00003c38       _ConnectToCall             00446c38     ARDOPC.obj
 0003:00003c48       _TrailerLength             00446c48     ARDOPC.obj
 0003:00003c4c       _RXLevel                   00446c4c     ARDOPC.obj
 0003:00003c50       _FECRepeats                00446c50     ARDOPC.obj
 0003:00003c54       _FECId                     00446c54     ARDOPC.obj
 0003:00003c58       _HostPort                  00446c58     ARDOPC.obj
 0003:00003ca8       _pktport                   00446ca8     ARDOPC.obj
 0003:00003cac       _RadioControl              00446cac     ARDOPC.obj
 0003:00003cb0       _SlowCPU                   00446cb0     ARDOPC.obj
 0003:00003cb4       _Use600Modes               00446cb4     ARDOPC.obj
 0003:00003cb8       _FSKOnly                   00446cb8     ARDOPC.obj
 0003:00003cbc       _hCATDevice                00446cbc     ARDOPC.obj
 0003:00003cc0       _CATPort                   00446cc0     ARDOPC.obj
 0003:00003d10       _EnableHostCATRX           00446d10     ARDOPC.obj
 0003:00003d14       _hPTTDevice                00446d14     ARDOPC.obj
 0003:00003d18       _PTTPort                   00446d18     ARDOPC.obj
 0003:00003d68       _blnInitializing           00446d68     ARDOPC.obj
 0003:00003d6c       _blnLastPTT                00446d6c     ARDOPC.obj
 0003:00003d70       _intRmtLeaderMeasure       00446d70     ARDOPC.obj
 0003:00003d74       _SoundIsPlaying            00446d74     ARDOPC.obj
 0003:00003d78       _blnAbort                  00446d78     ARDOPC.obj
 0003:00003d7c       _blnARQDisconnect          00446d7c     ARDOPC.obj
 0003:00003d80       _blnClosing                00446d80     ARDOPC.obj
 0003:00003d84       _blnCodecStarted           00446d84     ARDOPC.obj
 0003:00003d88       _dttNextPlay               00446d88     ARDOPC.obj
 0003:00003d8c       _blnTimeoutTriggered       00446d8c     ARDOPC.obj
 0003:00003d90       _bytEncodedBytes           00446d90     ARDOPC.obj
 0003:00004498       _MaxErrors                 00447498     ARDOPC.obj
 0003:0000449c       _LastBusyCheck             0044749c     ARDOPC.obj
 0003:000044a0       _dblMaxScale               004474a0     ARDOPC.obj
 0003:000044a4       _intLastFrameIDToHost      004474a4     ARQ.obj
 0003:000044a8       _intLastFailedFrameID      004474a8     ARQ.obj
 0003:000044ac       _intShiftUpDn              004474ac     ARQ.obj
 0003:000044b0       _intFrameTypePtr           004474b0     ARQ.obj
 0003:000044b4       _intRmtLeaderMeas          004474b4     ARQ.obj
 0003:000044b8       _bytLastARQDataFrameSent   004474b8     ARQ.obj
 0003:000044b9       _bytLastARQDataFrameAcked  004474b9     ARQ.obj
 0003:000044ba       _bytCurrentFrameType       004474ba     ARQ.obj
 0003:000044bc       _bytQDataInProcessLen      004474bc     ARQ.obj
 0003:000044c0       _blnLastFrameSentData      004474c0     ARQ.obj
 0003:000044c4       _AuxCallsLength            004474c4     ARQ.obj
 0003:000044c8       _AuxCalls                  004474c8     ARQ.obj
 0003:0000452c       _blnBREAKCmd               0044752c     ARQ.obj
 0003:00004530       _BusyBlock                 00447530     ARQ.obj
 0003:00004534       _bytFrameTypesForBWLength  00447534     ARQ.obj
 0003:00004538       _tmrFinalID                00447538     ARQ.obj
 0003:0000453c       _tmrIRSPendingTimeout      0044753c     ARQ.obj
 0003:00004540       _intOBBytesToConfirm       00447540     ARQ.obj
 0003:00004544       _intBytesConfirmed         00447544     ARQ.obj
 0003:00004548       _intReportedLeaderLen      00447548     ARQ.obj
 0003:0000454c       _blnLastPSNPassed          0044754c     ARQ.obj
 0003:00004550       _blnInitiatedConnection    00447550     ARQ.obj
 0003:00004554       _dblAvgPECreepPerCarrier   00447554     ARQ.obj
 0003:00004556       _NO_CTEXT                  00447556     pktSession.obj
 0003:00004557       _MSGFLAG                   00447557     pktSession.obj
 0003:00004558       _intTotalSymbols           00447558     ARQ.obj
 0003:0000455c       _intNAKctr                 0044755c     ARQ.obj
 0003:00004560       _strLastStringPassedToHost 00447560     ARQ.obj
 0003:000045b0       _ModeHasWorked             004475b0     ARQ.obj
 0003:000045d0       _ModeHasBeenTried          004475d0     ARQ.obj
 0003:000045f0       _ModeNAKS                  004475f0     ARQ.obj
 0003:00004610       _dblQuality                00447610     ARQ.obj
 0003:00004614       _blnLastBusy               00447614     BusyDetect.obj
 0003:00004618       _intLastStart              00447618     BusyDetect.obj
 0003:0000461c       _intLastStop               0044761c     BusyDetect.obj
 0003:00004620       _intBusyOnCnt              00447620     BusyDetect.obj
 0003:00004624       _intBusyOffCnt             00447624     BusyDetect.obj
 0003:00004628       _dttLastBusyTrip           00447628     BusyDetect.obj
 0003:0000462c       _dttPriorLastBusyTrip      0044762c     BusyDetect.obj
 0003:00004630       _dttLastBusyClear          00447630     BusyDetect.obj
 0003:00004634       _optarg                    00447634     getopt.obj
 0003:00004638       ___mingw_optreset          00447638     getopt.obj
 0003:00004650       _blnHostRDY                00447650     HostInterface.obj
 0003:00004654       _SerialMode                00447654     HostInterface.obj
 0003:00004658       _strFault                  00447658     HostInterface.obj
 0003:000046bc       _KRXPutPtr                 004476bc     KISSModule.obj
 0003:000046c0       _KISSPORTNAME              004476c0     KISSModule.obj
 0003:00004710       _KRXGetPtr                 00447710     KISSModule.obj
 0003:00004714       _FENDCount                 00447714     KISSModule.obj
 0003:00004718       _KTXPutPtr                 00447718     KISSModule.obj
 0003:0000471c       _KTXGetPtr                 0044771c     KISSModule.obj
 0003:00004720       _KISSLength                00447720     KISSModule.obj
 0003:00004724       _ESCFlag                   00447724     KISSModule.obj
 0003:00004728       _KISSHandle                00447728     KISSModule.obj
 0003:0000472c       _intSoftClipCnt            0044772c     Modulate.obj
 0003:00004730       _SendingHeader200          00447730     Modulate.obj
 0003:00004734       _dblZin                    00447734     Modulate.obj
 0003:000047c0       _dblZin_1                  004477c0     Modulate.obj
 0003:000047c4       _dblZin_2                  004477c4     Modulate.obj
 0003:000047c8       _dblZComb                  004477c8     Modulate.obj
 0003:000047cc       _outCount                  004477cc     Modulate.obj
 0003:000047d0       _dblZout_0                 004477d0     Modulate.obj
 0003:00004858       _dblZout_1                 00447858     Modulate.obj
 0003:000048e0       _dblZout_2                 004478e0     Modulate.obj
 0003:00004968       _largest                   00447968     Modulate.obj
 0003:0000496c       _smallest                  0044796c     Modulate.obj
 0003:00004970       _Last120Get                00447970     Modulate.obj
 0003:00004974       _Number                    00447974     Modulate.obj
 0003:00004978       _pktMode                   00447978     pktARDOP.obj
 0003:0000497c       _MYCALL                    0044797c     pktSession.obj
 0003:00004983       _DelayedEcho               00447983     SCSHostInterface.obj
 0003:00004984       _initPacLen                00447984     pktSession.obj
 0003:00004988       _LINKS                     00447988     pktSession.obj
 0003:0000498c       _LastL2Tick                0044798c     pktSession.obj
 0003:00004990       _DEBUG                     00447990     rs.obj
 0003:00004994       _LogToHostBufferLen        00447994     SCSHostInterface.obj
 0003:00004998       _bytDataToSendLength       00447998     SCSHostInterface.obj
 0003:0000499c       _bytesforHost              0044799c     SCSHostInterface.obj
 0003:000049a0       _bytesEchoed               004479a0     SCSHostInterface.obj
 0003:000049a4       _CatRXLen                  004479a4     SCSHostInterface.obj
 0003:000049a8       _DEDMode                   004479a8     SCSHostInterface.obj
 0003:000049ac       _PACMode                   004479ac     SCSHostInterface.obj
 0003:000049b0       _HostMode                  004479b0     SCSHostInterface.obj
 0003:000049b4       _PTCMode                   004479b4     SCSHostInterface.obj
 0003:000049b8       _change                    004479b8     SCSHostInterface.obj
 0003:000049bc       _SCSState                  004479bc     SCSHostInterface.obj
 0003:000049c0       _PacketMonMore             004479c0     SCSHostInterface.obj
 0003:000049c4       _PacketMonLength           004479c4     SCSHostInterface.obj
 0003:000049c8       _blnLeaderFound            004479c8     SoundInput.obj
 0003:000049cc       _rawSamplesLength          004479cc     SoundInput.obj
 0003:000049d0       _intFilteredMixedSamplesLength 004479d0     SoundInput.obj
 0003:000049d4       _DataRate                  004479d4     SoundInput.obj
 0003:000049d8       _strType                   004479d8     SoundInput.obj
 0003:000049ea       _CurrentLevel              004479ea     Waveout1.obj
 0003:000049ec       _strMod                    004479ec     SoundInput.obj
 0003:000049fc       _charIndex                 004479fc     SoundInput.obj
 0003:00004a00       _intPhases                 00447a00     SoundInput.obj
 0003:00007cf0       _intMags                   0044acf0     SoundInput.obj
 0003:0000afe0       _DummyCarrier              0044dfe0     SoundInput.obj
 0003:0000afe4       _PSKInitDone               0044dfe4     SoundInput.obj
 0003:0000afe8       _dblOffsetLastGoodDecode   0044dfe8     SoundInput.obj
 0003:0000afec       _dblOffsetHz               0044dfec     SoundInput.obj
 0003:0000aff0       _lastGoodID                0044dff0     SoundInput.obj
 0003:0000affc       _dblNCOPhase               0044dffc     SoundInput.obj
 0003:0000b000       _dblPwrSNPower_dBPrior     0044e000     SoundInput.obj
 0003:0000b004       _intPhaseError             0044e004     SoundInput.obj
 0003:0000b008       _xdblZin_1                 0044e008     SoundInput.obj
 0003:0000b00c       _xdblZin_2                 0044e00c     SoundInput.obj
 0003:0000b010       _xdblZComb                 0044e010     SoundInput.obj
 0003:0000b020       _xdblZout_0                0044e020     SoundInput.obj
 0003:0000b094       _HanWinLen                 0044e094     SoundInput.obj
 0003:0000b098       _xdblZout_1                0044e098     SoundInput.obj
 0003:0000b10c       _Corrections               0044e10c     SoundInput.obj
 0003:0000b110       _xdblZout_2                0044e110     SoundInput.obj
 0003:0000b184       _intSNdB                   0044e184     SoundInput.obj
 0003:0000b188       _xdblCoef                  0044e188     SoundInput.obj
 0003:0000b1fc       _intQuality                0044e1fc     SoundInput.obj
 0003:0000b244       _pskStart                  0044e244     SoundInput.obj
 0003:0000b24c       _intCarMagThreshold        0044e24c     SoundInput.obj
 0003:0000b260       _TCPControlSock            0044e260     TCPHostInterface.obj
 0003:0000b264       _TCPDataSock               0044e264     TCPHostInterface.obj
 0003:0000b268       _PktSock                   0044e268     TCPHostInterface.obj
 0003:0000b26c       _ListenSock                0044e26c     TCPHostInterface.obj
 0003:0000b270       _DataListenSock            0044e270     TCPHostInterface.obj
 0003:0000b274       _PktListenSock             0044e274     TCPHostInterface.obj
 0003:0000b278       _GUISock                   0044e278     TCPHostInterface.obj
 0003:0000b27c       _GUIActive                 0044e27c     TCPHostInterface.obj
 0003:0000b280       _LastGUITime               0044e280     TCPHostInterface.obj
 0003:0000b284       _CONNECTED                 0044e284     TCPHostInterface.obj
 0003:0000b288       _DATACONNECTED             0044e288     TCPHostInterface.obj
 0003:0000b28c       _PKTCONNECTED              0044e28c     TCPHostInterface.obj
 0003:0000b290       _InputLen                  0044e290     TCPHostInterface.obj
 0003:0000b294       _DataInputLen              0044e294     TCPHostInterface.obj
 0003:0000b298       _InReceiveProcess          0044e298     TCPHostInterface.obj
 0003:0000b29c       _Loopback                  0044e29c     Waveout1.obj
 0003:0000b2a0       _LogDir                    0044e2a0     Waveout1.obj
 0003:0000b3a0       _logfile                   0044e3a0     Waveout1.obj
 0003:0000b3ac       _CaptureDevices            0044e3ac     Waveout1.obj
 0003:0000b3b0       _PlaybackDevices           0044e3b0     Waveout1.obj
 0003:0000b3b4       _CaptureCount              0044e3b4     Waveout1.obj
 0003:0000b3b8       _PlaybackCount             0044e3b8     Waveout1.obj
 0003:0000b3bc       _hWaveOut                  0044e3bc     Waveout1.obj
 0003:0000b3c0       _CaptureNames              0044e3c0     Waveout1.obj
 0003:0000b5e0       _PlaybackNames             0044e5e0     Waveout1.obj
 0003:0000b800       _hWaveIn                   0044e800     Waveout1.obj
 0003:0000b804       _Index                     0044e804     Waveout1.obj
 0003:0000b808       _inIndex                   0044e808     Waveout1.obj
 0003:0000b80c       _min                       0044e80c     Waveout1.obj
 0003:0000b810       _max                       0044e810     Waveout1.obj
 0003:0000b814       _lastlevelGUI              0044e814     Waveout1.obj
 0003:0000b818       _lastlevelreport           0044e818     Waveout1.obj
 0003:0000b81c       _statslogfile              0044e81c     Waveout1.obj
 0003:0000b820       _Leds                      0044e820     Waveout1.obj
 0003:0000b828       _PKTLEDTimer               0044e828     Waveout1.obj
 0003:0000b830       _extraDelay                0044e830     ARDOPCommon.obj
 0003:0000b83c       _CM108Device               0044e83c     ARDOPCommon.obj
 0003:0000b840       __debugger_hook_dummy      0044e840     <common>
 0003:0000b844       __pmatherr                 0044e844     <common>
 0003:0000b848       ___sbh_cntHeaderList       0044e848     <common>
 0003:0000b84c       ___sbh_pHeaderList         0044e84c     <common>
 0003:0000b850       ___sbh_threshold           0044e850     <common>
 0003:0000b854       ___sbh_pHeaderScan         0044e854     <common>
 0003:0000b858       ___sbh_sizeHeaderList      0044e858     <common>
 0003:0000b85c       ___sbh_indGroupDefer       0044e85c     <common>
 0003:0000b860       ___active_heap             0044e860     <common>
 0003:0000b864       __pDestructExceptionObject 0044e864     <common>
 0003:0000b868       __nhandle                  0044e868     <common>
 0003:0000b880       ___pioinfo                 0044e880     <common>
 0003:0000b980       ___use_sse2_mathfcns       0044e980     <common>
 0003:0000b984       ___sse2_available          0044e984     <common>
 0003:0000b988       __acmdln                   0044e988     <common>
 0003:0000b98c       ___env_initialized         0044e98c     <common>
 0003:0000b990       ___onexitend               0044e990     <common>
 0003:0000b994       ___onexitbegin             0044e994     <common>
 0003:0000b998       ___mbctype_initialized     0044e998     <common>
 0003:0000b99c       ___dyn_tls_init_callback   0044e99c     <common>
 0003:0000b9a0       ___piob                    0044e9a0     <common>
 0003:0000b9c0       __bufin                    0044e9c0     <common>
 0003:0000c9c0       __nstream                  0044f9c0     <common>
 0003:0000c9c8       _NewTicks                  0044f9c8     <common>
 0003:0000c9d0       _StartTicks                0044f9d0     <common>
 0003:0000c9e0       _inbuffer                  0044f9e0     <common>
 0003:0000d340       _pwic                      00450340     <common>
 0003:0000d380       _Pixels                    00450380     <common>
 0003:0000e380       _pwoc                      00451380     <common>
 0003:0000e3b8       _Frequency                 004513b8     <common>
 0003:0000e3c0       _LastNow                   004513c0     <common>
 0003:0000e3e0       _buffer                    004513e0     <common>
 0003:0000f6a0       _RXBUFFER                  004526a0     <common>
 0003:0000f894       _VCOM                      00452894     <common>
 0003:0000f8a0       _PORTNAME                  004528a0     <common>
 0003:0000f8f0       _NewVCOM                   004528f0     <common>
 0003:0000f8f4       _PortEnabled               004528f4     <common>
 0003:0000f900       _ARDOPDataBuffer           00452900     <common>
 0003:00011900       _ARDOPBuffer               00454900     <common>
 0003:00013900       _GUIHost                   00456900     <common>
 0003:00013920       _bytDataToSend             00456920     <common>
 0003:0002bfc0       _intRSLen                  0046efc0     <common>
 0003:0002bfe0       _intPriorMixedSamples      0046efe0     <common>
 0003:0002c0d0       _intARQRTmeasuredMs        0046f0d0     <common>
 0003:0002c0d4       _blnSymbolSyncFound        0046f0d4     <common>
 0003:0002c0d8       _dblHanAng                 0046f0d8     <common>
 0003:0002c0e0       _intNforGoertzel           0046f0e0     <common>
 0003:0002c100       _strRcvFrameTag            0046f100     <common>
 0003:0002c120       _intCarMagAvg              0046f120     <common>
 0003:0002f410       _SymbolsLeft               00472410     <common>
 0003:0002f420       _intCarPhaseAvg            00472420     <common>
 0003:00032710       _bytMinQualThresh          00475710     <common>
 0003:00032714       _intToneMagsLength         00475714     <common>
 0003:00032718       _intCarFreq                00475718     <common>
 0003:0003271c       _dblHannAng                0047571c     <common>
 0003:00032720       _dblFreqBin                00475720     <common>
 0003:00032748       _blnOdd                    00475748     <common>
 0003:00032760       _rawSamples                00475760     <common>
 0003:00033a20       _dblHanWin                 00476a20     <common>
 0003:00033c00       _intSampPerSym             00476c00     <common>
 0003:00033c04       _intDataLen                00476c04     <common>
 0003:00033c08       _frameLen                  00476c08     <common>
 0003:00033c20       _intSumCounts              00476c20     <common>
 0003:00033c48       _intPSKMode                00476c48     <common>
 0003:00033c60       _intToneMags               00476c60     <common>
 0003:00038de0       _intPSKPhase_1             0047bde0     <common>
 0003:00038e00       _intToneMagsAvg            0047be00     <common>
 0003:00039860       _strDecodeCapture          0047c860     <common>
 0003:00039c60       _intNumCar                 0047cc60     <common>
 0003:00039c64       _intPhasesLen              0047cc64     <common>
 0003:00039c68       _blnFrameSyncFound         0047cc68     <common>
 0003:00039c6c       _intBaud                   0047cc6c     <common>
 0003:00039c80       _intPSKPhase_0             0047cc80     <common>
 0003:00039ca0       _bytData                   0047cca0     <common>
 0003:0003a2e0       _dttLastLeaderDetect       0047d2e0     <common>
 0003:0003a2f0       _CarrierOk                 0047d2f0     <common>
 0003:0003a300       _intCP                     0047d300     <common>
 0003:0003a320       _intFilteredMixedSamples   0047d320     <common>
 0003:0003f140       _totalRSErrors             00482140     <common>
 0003:0003f148       _dblPhaseInc               00482148     <common>
 0003:0003f150       _dblPhaseDiff1_2Avg        00482150     <common>
 0003:0003f154       _intFrameType              00482154     <common>
 0003:0003f158       _intToneMagsIndex          00482158     <common>
 0003:0003f160       _LastDataFrameType         00482160     <common>
 0003:0003f164       _dttStartRmtLeaderMeasure  00482164     <common>
 0003:0003f180       _dblHannWin                00482180     <common>
 0003:0003f900       _bytFrameData              00482900     <common>
 0003:0003ffe0       _bytDataforHost            00482fe0     <common>
 0003:000407e0       _SCSReply                  004837e0     <common>
 0003:00040900       _CMDReplyBuffer            00483900     <common>
 0003:00040a00       _PacketMon                 00483a00     <common>
 0003:00040b68       _Term4Mode                 00483b68     <common>
 0003:00040b70       _ReportCall                00483b70     <common>
 0003:00040b80       _LogToHostBuffer           00483b80     <common>
 0003:00041380       _ReplyLen                  00484380     <common>
 0003:00041384       _RXBPtr                    00484384     <common>
 0003:000413a0       _CatRXbuffer               004843a0     <common>
 0003:000414a0       _CommandToHostBufferLen    004844a0     <common>
 0003:000414c0       _CommandToHostBuffer       004844c0     <common>
 0003:000416c0       _Toggle                    004846c0     <common>
 0003:000416e0       _bytEchoData               004846e0     <common>
 0003:00041be0       _genPoly                   00484be0     <common>
 0003:00041fe0       _synBytes                  00484fe0     <common>
 0003:000421e0       _AuxAX                     004851e0     <common>
 0003:00042228       _pktDataLen                00485228     <common>
 0003:0004222c       _pktRSLen                  0048522c     <common>
 0003:00042230       _pktRXMode                 00485230     <common>
 0003:00042234       _fWidth                    00485234     <common>
 0003:00042238       _DMABuffer                 00485238     <common>
 0003:0004223c       _last                      0048523c     <common>
 0003:00042240       _SampleNo                  00485240     <common>
 0003:00042260       _Last120                   00485260     <common>
 0003:00042460       _centreSlot                00485460     <common>
 0003:00042464       _first                     00485464     <common>
 0003:00042480       _KISSBUFFER                00485480     <common>
 0003:00042680       _KISSRXBUFF                00485680     <common>
 0003:00043680       _hDevice                   00486680     <common>
 0003:000436a0       _KISSTXBUFF                004866a0     <common>
 0003:000446a0       _gexp                      004876a0     <common>
 0003:00044ea0       _glog                      00487ea0     <common>
 0003:000452a0       _bytFailedData             004882a0     <common>
 0003:000458e0       _bytFailedDataLength       004888e0     <common>
 0003:000458e4       _crcLastFECDataPassedToHost 004888e4     <common>
 0003:000458e8       _bytFrameType              004888e8     <common>
 0003:000458ec       _dttLastFECIDSent          004888ec     <common>
 0003:000458f0       _blnSendIDFrame            004888f0     <common>
 0003:000458f4       _bytLastFECDataFrameSent   004888f4     <common>
 0003:000458f8       _intFECFramesSent          004888f8     <common>
 0003:000458fc       _FECRepeatsSent            004888fc     <common>
 0003:00045900       _dttLastTrip               00488900     <common>
 0003:00045904       _NErrors                   00488904     <common>
 0003:00045908       _bytLastACKedDataFrameType 00488908     <common>
 0003:0004590c       _intQAMSymbolCnt           0048890c     <common>
 0003:00045910       _strRemoteCallsign         00488910     <common>
 0003:0004591c       _intShiftDNs               0048891c     <common>
 0003:00045920       _strLocalCallsign          00488920     <common>
 0003:0004592c       _intReceivedLeaderLen      0048892c     <common>
 0003:00045930       _intAvgFSKQuality          00488930     <common>
 0003:00045934       _intShiftUPs               00488934     <common>
 0003:00045938       _intSessionBW              00488938     <common>
 0003:0004593c       _intGoodFSKFrameTypes      0048893c     <common>
 0003:00045940       _intTimeouts               00488940     <common>
 0003:00045944       _intFailedFSKFrameDataDecodes 00488944     <common>
 0003:00045948       _intAccumQAMTracking       00488948     <common>
 0003:0004594c       _intAvgPSKQuality          0048894c     <common>
 0003:00045950       _intLeaderDetects          00488950     <common>
 0003:00045954       _blnDISCRepeating          00488954     <common>
 0003:00045958       _intFrameRepeatInterval    00488958     <common>
 0003:0004595c       _intAccumFSKTracking       0048895c     <common>
 0003:00045960       _dblLeaderSNAvg            00488960     <common>
 0003:00045964       _dttStartSession           00488964     <common>
 0003:00045968       _intBW                     00488968     <common>
 0003:0004596c       _dblAvgPSKRefErr           0048896c     <common>
 0003:00045970       _strFinalIDCallsign        00488970     <common>
 0003:0004597c       _intPSKSymbolCnt           0048897c     <common>
 0003:00045980       _intQAMTrackAttempts       00488980     <common>
 0003:000459a0       _intNAKLoQThresholds       004889a0     <common>
 0003:000459c0       _strGridSquare             004889c0     <common>
 0003:000459ca       _bytLastReceivedDataFrameType 004889ca     <common>
 0003:000459cc       _dttLastIDSent             004889cc     <common>
 0003:000459d0       _intLinkTurnovers          004889d0     <common>
 0003:000459d4       _blnEnbARQRpt              004889d4     <common>
 0003:000459d8       _intFailedFSKFrameTypes    004889d8     <common>
 0003:000459dc       _bytFrameTypesForBW        004889dc     <common>
 0003:000459e0       _intAccumPSKTracking       004889e0     <common>
 0003:000459e4       _intGoodFSKFrameDataDecodes 004889e4     <common>
 0003:000459e8       _dblAvgDecodeDistance      004889e8     <common>
 0003:000459ec       _ARQState                  004889ec     <common>
 0003:000459f0       _intEnvelopeCors           004889f0     <common>
 0003:000459f4       _intConReqQuality          004889f4     <common>
 0003:000459f8       _intConReqSN               004889f8     <common>
 0003:000459fc       _intFrameSyncs             004889fc     <common>
 0003:00045a00       _intGoodPSKSummationDecodes 00488a00     <common>
 0003:00045a04       _intDecodeDistanceCount    00488a04     <common>
 0003:00045a08       _bytShiftUpThresholds      00488a08     <common>
 0003:00045a0c       _blnARQConnected           00488a0c     <common>
 0003:00045a10       _intGoodPSKFrameDataDecodes 00488a10     <common>
 0003:00045a14       _intLeaderSyncs            00488a14     <common>
 0003:00045a18       _tmrPollOBQueue            00488a18     <common>
 0003:00045a1c       _intPSKTrackAttempts       00488a1c     <common>
 0003:00045a20       _intACKHiQThresholds       00488a20     <common>
 0003:00045a38       _bytPendingSessionID       00488a38     <common>
 0003:00045a3c       _dttTimeoutTrip            00488a3c     <common>
 0003:00045a40       _blnPending                00488a40     <common>
 0003:00045a44       _bytLastARQSessionID       00488a44     <common>
 0003:00045a48       _intFSKSymbolCnt           00488a48     <common>
 0003:00045a4c       _intFailedPSKFrameDataDecodes 00488a4c     <common>
 0003:00045a50       _intFailedQAMFrameDataDecodes 00488a50     <common>
 0003:00045a54       _intGoodFSKSummationDecodes 00488a54     <common>
 0003:00045a58       _dblFSKTuningSNAvg         00488a58     <common>
 0003:00045a5c       _intGoodQAMFrameDataDecodes 00488a5c     <common>
 0003:00045a60       _dblAvgCorMaxToMaxProduct  00488a60     <common>
 0003:00045a64       _DecodeCompleteTime        00488a64     <common>
 0003:00045a68       _stcLastPingdttTimeReceived 00488a68     <common>
 0003:00045a6c       _EncLen                    00488a6c     <common>
 0003:00045a70       _int8FSKQualityCnts        00488a70     <common>
 0003:00045a80       _PTTOnCmd                  00488a80     <common>
 0003:00045ac0       _dttStartRTMeasure         00488ac0     <common>
 0003:00045ac4       _intQAMQuality             00488ac4     <common>
 0003:00045ac8       _int4FSKQualityCnts        00488ac8     <common>
 0003:00045ad0       _stcLastPingstrTarget      00488ad0     <common>
 0003:00045adc       _State                     00488adc     <common>
 0003:00045ae0       _dttLastPINGSent           00488ae0     <common>
 0003:00045ae4       _bytValidFrameTypes        00488ae4     <common>
 0003:00045ae8       _CQCount                   00488ae8     <common>
 0003:00045af0       _intPSKQualityCnts         00488af0     <common>
 0003:00045af8       _int8FSKQuality            00488af8     <common>
 0003:00045afc       _intPSKSymbolsDecoded      00488afc     <common>
 0003:00045b00       _int16FSKQualityCnts       00488b00     <common>
 0003:00045b10       _stcLastPingstrSender      00488b10     <common>
 0003:00045b1c       _intFSKSymbolsDecoded      00488b1c     <common>
 0003:00045b20       _stcLastPingintQuality     00488b20     <common>
 0003:00045b24       _bytValidFrameTypesLength  00488b24     <common>
 0003:00045b40       _dblMagSpectrum            00488b40     <common>
 0003:00045e78       _int16FSKQuality           00488e78     <common>
 0003:00045e7c       _intRepeatCount            00488e7c     <common>
 0003:00045e80       _tmrSendTimeout            00488e80     <common>
 0003:00045e84       _intQAMSymbolsDecoded      00488e84     <common>
 0003:00045e88       _intQAMQualityCnts         00488e88     <common>
 0003:00045ea0       _PTTOffCmd                 00488ea0     <common>
 0003:00045ee0       _stcLastPingintRcvdSN      00488ee0     <common>
 0003:00045ee4       _PingCount                 00488ee4     <common>
 0003:00045ee8       _intGoodQAMSummationDecodes 00488ee8     <common>
 0003:00045eec       _ProtocolState             00488eec     <common>
 0003:00045ef0       _int4FSKQuality            00488ef0     <common>
 0003:00045ef4       _intLastRcvdFrameQuality   00488ef4     <common>
 0003:00045ef8       _newStatus                 00488ef8     <common>
 0003:00045f00       _intPSKQuality             00488f00     <common>
 0003:00045f08       _intCalcLeader             00488f08     <common>
 0003:00045f0c       _blnBusyStatus             00488f0c     <common>

 entry point at        0001:0001f5a9

 Static symbols

 0001:00005c30       _compute_discrepancy       00406c30 f    CIL library: CIL module
 0001:00007150       _init_exp_table            00408150 f    CIL library: CIL module
 0001:00007520       _getopt_parse              00408520 f    CIL library: CIL module
 0001:0000e9b0       _compute_genpoly           0040f9b0 f    CIL library: CIL module
 0001:0001b940       _register_error            0041c940 f    CIL library: CIL module
 0001:0001b9b0       _lookup_functions          0041c9b0 f    CIL library: CIL module
 0001:0001d200       _swap                      0041e200 f   LIBCMT:qsort.obj
 0001:0001d230       _shortsort                 0041e230 f   LIBCMT:qsort.obj
 0001:0001d66e       ?_strupr_s_l_stat@@YAHPADIPAUlocaleinfo_struct@@@Z 0041e66e f   LIBCMT:strupr.obj
 0001:0001e893       ?strtoxl@@YAKPAUlocaleinfo_struct@@PBDPAPBDHH@Z 0041f893 f   LIBCMT:strtol.obj
 0001:0001f0f7       __initterm                 004200f7 f   LIBCMT:crt0dat.obj
 0001:0001f234       _doexit                    00420234 f   LIBCMT:crt0dat.obj
 0001:0001f38e       _fast_error_exit           0042038e f   LIBCMT:crt0.obj
 0001:0001f3b2       _check_managed_app         004203b2 f   LIBCMT:crt0.obj
 0001:0001f3f3       ___tmainCRTStartup         004203f3 f   LIBCMT:crt0.obj
 0001:0001f817       _write_char                00420817 f   LIBCMT:output.obj
 0001:0001f84a       _write_multi_char          0042084a f   LIBCMT:output.obj
 0001:0001f86e       _write_string              0042086e f   LIBCMT:output.obj
 0001:00020a70       _fastcopy_I                00421a70 f   LIBCMT:p4_memcpy.obj
 0001:00020bee       ?CPtoLCID@@YAHH@Z          00421bee f   LIBCMT:mbctype.obj
 0001:00020c1d       ?setSBCS@@YAXPAUthreadmbcinfostruct@@@Z 00421c1d f   LIBCMT:mbctype.obj
 0001:00020c72       ?setSBUpLow@@YAXPAUthreadmbcinfostruct@@@Z 00421c72 f   LIBCMT:mbctype.obj
 0001:00020ea0       ?getSystemCP@@YAHH@Z       00421ea0 f   LIBCMT:mbctype.obj
 0001:000214cf       __updatetlocinfoEx_nolock  004224cf f   LIBCMT:setlocal.obj
 0001:000219bc       _flsall                    004229bc f   LIBCMT:fflush.obj
 0001:00021f9b       ?__crtLCMapStringA_stat@@YAHPAUlocaleinfo_struct@@KKPBDHPADHHH@Z 00422f9b f   LIBCMT:a_map.obj
 0001:00024950       __unwind_handler4          00425950 f   LIBCMT:exsup4.obj
 0001:00024c3b       _siglookup                 00425c3b f   LIBCMT:winsig.obj
 0001:00024e2c       __onexit_nolock            00425e2c f   LIBCMT:onexit.obj
 0001:00025276       ___crtInitCritSecNoSpinCount@8 00426276 f   LIBCMT:initcrit.obj
 0001:00025426       _parse_cmdline             00426426 f   LIBCMT:stdargv.obj
 0001:00025c95       _fastzero_I                00426c95 f   LIBCMT:p4_memset.obj
 0001:00025d7b       _has_osfxsr_set            00426d7b f   LIBCMT:cpu_disp.obj
 0001:00025e74       ?__crtGetStringTypeA_stat@@YAHPAUlocaleinfo_struct@@KPBDHPAGHHH@Z 00426e74 f   LIBCMT:a_str.obj
 0001:00027653       __tsopen_nolock            00428653 f   LIBCMT:open.obj
 0001:00028148       __unwind_handler           00429148 f   LIBCMT:exsup.obj
 0001:0002830b       ?x_ismbbtype_l@@YAHPAUlocaleinfo_struct@@IHH@Z 0042930b f   LIBCMT:ismbbyte.obj
 0001:000285d5       __shift                    004295d5 f   LIBCMT:cvt.obj
 0001:0002860e       __cftoe2_l                 0042960e f   LIBCMT:cvt.obj
 0001:00028bd8       __cftof2_l                 00429bd8 f   LIBCMT:cvt.obj
 0001:0002b829       __hw_cw                    0042c829 f   LIBCMT:ieee87.obj
 0001:0002b8b7       ___hw_cw_sse2              0042c8b7 f   LIBCMT:ieee87.obj
